
db_app:	file format mach-o arm64

Disassembly of section __TEXT,__text:

0000000100001528 <_displayEmployee>:
100001528: d10183ff    	sub	sp, sp, #0x60
10000152c: a9057bfd    	stp	x29, x30, [sp, #0x50]
100001530: 910143fd    	add	x29, sp, #0x50
100001534: aa0003e8    	mov	x8, x0
100001538: f81f83a8    	stur	x8, [x29, #-0x8]
10000153c: f9400011    	ldr	x17, [x0]
100001540: f9400410    	ldr	x16, [x0, #0x8]
100001544: f940080f    	ldr	x15, [x0, #0x10]
100001548: f940180e    	ldr	x14, [x0, #0x30]
10000154c: f940200d    	ldr	x13, [x0, #0x40]
100001550: f940140c    	ldr	x12, [x0, #0x28]
100001554: f940280b    	ldr	x11, [x0, #0x50]
100001558: f9402c0a    	ldr	x10, [x0, #0x58]
10000155c: f9402408    	ldr	x8, [x0, #0x48]
100001560: 910003e9    	mov	x9, sp
100001564: f9000131    	str	x17, [x9]
100001568: f9000530    	str	x16, [x9, #0x8]
10000156c: f900092f    	str	x15, [x9, #0x10]
100001570: f9000d2e    	str	x14, [x9, #0x18]
100001574: f900112d    	str	x13, [x9, #0x20]
100001578: f900152c    	str	x12, [x9, #0x28]
10000157c: f900192b    	str	x11, [x9, #0x30]
100001580: f9001d2a    	str	x10, [x9, #0x38]
100001584: f9002128    	str	x8, [x9, #0x40]
100001588: d0000020    	adrp	x0, 0x100007000 <_strncmp+0x100007000>
10000158c: 91120000    	add	x0, x0, #0x480
100001590: 940016ab    	bl	0x10000703c <_strncmp+0x10000703c>
100001594: a9457bfd    	ldp	x29, x30, [sp, #0x50]
100001598: 910183ff    	add	sp, sp, #0x60
10000159c: d65f03c0    	ret

00000001000015a0 <_displayEmployees>:
1000015a0: d102c3ff    	sub	sp, sp, #0xb0
1000015a4: a90a7bfd    	stp	x29, x30, [sp, #0xa0]
1000015a8: 910283fd    	add	x29, sp, #0xa0
1000015ac: f81f83a0    	stur	x0, [x29, #-0x8]
1000015b0: b81f43a1    	stur	w1, [x29, #-0xc]
1000015b4: d0000020    	adrp	x0, 0x100007000 <_strncmp+0x100007000>
1000015b8: 91136000    	add	x0, x0, #0x4d8
1000015bc: 940016a0    	bl	0x10000703c <_strncmp+0x10000703c>
1000015c0: b81f03bf    	stur	wzr, [x29, #-0x10]
1000015c4: 14000001    	b	0x1000015c8 <_displayEmployees+0x28>
1000015c8: b85f03a8    	ldur	w8, [x29, #-0x10]
1000015cc: b85f43a9    	ldur	w9, [x29, #-0xc]
1000015d0: 6b090108    	subs	w8, w8, w9
1000015d4: 1a9fb7e8    	cset	w8, ge
1000015d8: 370004e8    	tbnz	w8, #0x0, 0x100001674 <_displayEmployees+0xd4>
1000015dc: 14000001    	b	0x1000015e0 <_displayEmployees+0x40>
1000015e0: f85f83a8    	ldur	x8, [x29, #-0x8]
1000015e4: b89f03a9    	ldursw	x9, [x29, #-0x10]
1000015e8: d2800f0a    	mov	x10, #0x78              ; =120
1000015ec: 9b0a7d29    	mul	x9, x9, x10
1000015f0: f8696908    	ldr	x8, [x8, x9]
1000015f4: f1000108    	subs	x8, x8, #0x0
1000015f8: 1a9f07e8    	cset	w8, ne
1000015fc: 37000068    	tbnz	w8, #0x0, 0x100001608 <_displayEmployees+0x68>
100001600: 14000001    	b	0x100001604 <_displayEmployees+0x64>
100001604: 1400001c    	b	0x100001674 <_displayEmployees+0xd4>
100001608: b85f03a8    	ldur	w8, [x29, #-0x10]
10000160c: 1100050a    	add	w10, w8, #0x1
100001610: 910003e9    	mov	x9, sp
100001614: aa0a03e8    	mov	x8, x10
100001618: f9000128    	str	x8, [x9]
10000161c: d0000020    	adrp	x0, 0x100007000 <_strncmp+0x100007000>
100001620: 91144000    	add	x0, x0, #0x510
100001624: 94001686    	bl	0x10000703c <_strncmp+0x10000703c>
100001628: f85f83a8    	ldur	x8, [x29, #-0x8]
10000162c: b89f03a9    	ldursw	x9, [x29, #-0x10]
100001630: d2800f0a    	mov	x10, #0x78              ; =120
100001634: 9b0a7d29    	mul	x9, x9, x10
100001638: 8b090101    	add	x1, x8, x9
10000163c: 910063e0    	add	x0, sp, #0x18
100001640: f9000be0    	str	x0, [sp, #0x10]
100001644: d2800f02    	mov	x2, #0x78               ; =120
100001648: 94001671    	bl	0x10000700c <_strncmp+0x10000700c>
10000164c: f9400be0    	ldr	x0, [sp, #0x10]
100001650: 97ffffb6    	bl	0x100001528 <_displayEmployee>
100001654: d0000020    	adrp	x0, 0x100007000 <_strncmp+0x100007000>
100001658: 91145800    	add	x0, x0, #0x516
10000165c: 94001678    	bl	0x10000703c <_strncmp+0x10000703c>
100001660: 14000001    	b	0x100001664 <_displayEmployees+0xc4>
100001664: b85f03a8    	ldur	w8, [x29, #-0x10]
100001668: 11000508    	add	w8, w8, #0x1
10000166c: b81f03a8    	stur	w8, [x29, #-0x10]
100001670: 17ffffd6    	b	0x1000015c8 <_displayEmployees+0x28>
100001674: d0000020    	adrp	x0, 0x100007000 <_strncmp+0x100007000>
100001678: 91146000    	add	x0, x0, #0x518
10000167c: 94001670    	bl	0x10000703c <_strncmp+0x10000703c>
100001680: a94a7bfd    	ldp	x29, x30, [sp, #0xa0]
100001684: 9102c3ff    	add	sp, sp, #0xb0
100001688: d65f03c0    	ret

000000010000168c <_searchEmployeeByName>:
10000168c: d102c3ff    	sub	sp, sp, #0xb0
100001690: a90a7bfd    	stp	x29, x30, [sp, #0xa0]
100001694: 910283fd    	add	x29, sp, #0xa0
100001698: f81f83a0    	stur	x0, [x29, #-0x8]
10000169c: d2801780    	mov	x0, #0xbc               ; =188
1000016a0: 94001658    	bl	0x100007000 <_strncmp+0x100007000>
1000016a4: f81f03a0    	stur	x0, [x29, #-0x10]
1000016a8: d0000020    	adrp	x0, 0x100007000 <_strncmp+0x100007000>
1000016ac: 9115b000    	add	x0, x0, #0x56c
1000016b0: 94001663    	bl	0x10000703c <_strncmp+0x10000703c>
1000016b4: b81ec3bf    	stur	wzr, [x29, #-0x14]
1000016b8: f85f03a8    	ldur	x8, [x29, #-0x10]
1000016bc: 910003e9    	mov	x9, sp
1000016c0: f9000128    	str	x8, [x9]
1000016c4: d0000020    	adrp	x0, 0x100007000 <_strncmp+0x100007000>
1000016c8: 91164c00    	add	x0, x0, #0x593
1000016cc: 9400166e    	bl	0x100007084 <_strncmp+0x100007084>
1000016d0: b81e83bf    	stur	wzr, [x29, #-0x18]
1000016d4: 14000001    	b	0x1000016d8 <_searchEmployeeByName+0x4c>
1000016d8: b85e83a8    	ldur	w8, [x29, #-0x18]
1000016dc: 71032108    	subs	w8, w8, #0xc8
1000016e0: 1a9fb7e8    	cset	w8, ge
1000016e4: 370005a8    	tbnz	w8, #0x0, 0x100001798 <_searchEmployeeByName+0x10c>
1000016e8: 14000001    	b	0x1000016ec <_searchEmployeeByName+0x60>
1000016ec: f85f83a8    	ldur	x8, [x29, #-0x8]
1000016f0: b89e83a9    	ldursw	x9, [x29, #-0x18]
1000016f4: d2800f0a    	mov	x10, #0x78              ; =120
1000016f8: 9b0a7d29    	mul	x9, x9, x10
1000016fc: f8696908    	ldr	x8, [x8, x9]
100001700: f1000108    	subs	x8, x8, #0x0
100001704: 1a9f17e8    	cset	w8, eq
100001708: 370003e8    	tbnz	w8, #0x0, 0x100001784 <_searchEmployeeByName+0xf8>
10000170c: 14000001    	b	0x100001710 <_searchEmployeeByName+0x84>
100001710: f85f83a8    	ldur	x8, [x29, #-0x8]
100001714: b89e83a9    	ldursw	x9, [x29, #-0x18]
100001718: d2800f0a    	mov	x10, #0x78              ; =120
10000171c: 9b0a7d29    	mul	x9, x9, x10
100001720: f8696900    	ldr	x0, [x8, x9]
100001724: f85f03a1    	ldur	x1, [x29, #-0x10]
100001728: 9400165a    	bl	0x100007090 <_strncmp+0x100007090>
10000172c: 71000008    	subs	w8, w0, #0x0
100001730: 1a9f07e8    	cset	w8, ne
100001734: 37000268    	tbnz	w8, #0x0, 0x100001780 <_searchEmployeeByName+0xf4>
100001738: 14000001    	b	0x10000173c <_searchEmployeeByName+0xb0>
10000173c: f85f83a8    	ldur	x8, [x29, #-0x8]
100001740: b89e83a9    	ldursw	x9, [x29, #-0x18]
100001744: d2800f0a    	mov	x10, #0x78              ; =120
100001748: 9b0a7d29    	mul	x9, x9, x10
10000174c: 8b090101    	add	x1, x8, x9
100001750: 910043e0    	add	x0, sp, #0x10
100001754: f90007e0    	str	x0, [sp, #0x8]
100001758: d2800f02    	mov	x2, #0x78               ; =120
10000175c: 9400162c    	bl	0x10000700c <_strncmp+0x10000700c>
100001760: f94007e0    	ldr	x0, [sp, #0x8]
100001764: 97ffff71    	bl	0x100001528 <_displayEmployee>
100001768: d0000020    	adrp	x0, 0x100007000 <_strncmp+0x100007000>
10000176c: 91145800    	add	x0, x0, #0x516
100001770: 94001633    	bl	0x10000703c <_strncmp+0x10000703c>
100001774: 52800028    	mov	w8, #0x1                ; =1
100001778: b81ec3a8    	stur	w8, [x29, #-0x14]
10000177c: 14000001    	b	0x100001780 <_searchEmployeeByName+0xf4>
100001780: 14000001    	b	0x100001784 <_searchEmployeeByName+0xf8>
100001784: 14000001    	b	0x100001788 <_searchEmployeeByName+0xfc>
100001788: b85e83a8    	ldur	w8, [x29, #-0x18]
10000178c: 11000508    	add	w8, w8, #0x1
100001790: b81e83a8    	stur	w8, [x29, #-0x18]
100001794: 17ffffd1    	b	0x1000016d8 <_searchEmployeeByName+0x4c>
100001798: b85ec3a8    	ldur	w8, [x29, #-0x14]
10000179c: 71000108    	subs	w8, w8, #0x0
1000017a0: 1a9f07e8    	cset	w8, ne
1000017a4: 370000c8    	tbnz	w8, #0x0, 0x1000017bc <_searchEmployeeByName+0x130>
1000017a8: 14000001    	b	0x1000017ac <_searchEmployeeByName+0x120>
1000017ac: d0000020    	adrp	x0, 0x100007000 <_strncmp+0x100007000>
1000017b0: 91166400    	add	x0, x0, #0x599
1000017b4: 94001622    	bl	0x10000703c <_strncmp+0x10000703c>
1000017b8: 14000001    	b	0x1000017bc <_searchEmployeeByName+0x130>
1000017bc: f85f03a0    	ldur	x0, [x29, #-0x10]
1000017c0: 9400160d    	bl	0x100006ff4 <_strncmp+0x100006ff4>
1000017c4: a94a7bfd    	ldp	x29, x30, [sp, #0xa0]
1000017c8: 9102c3ff    	add	sp, sp, #0xb0
1000017cc: d65f03c0    	ret

00000001000017d0 <_searchEmployeeByUsername>:
1000017d0: d102c3ff    	sub	sp, sp, #0xb0
1000017d4: a90a7bfd    	stp	x29, x30, [sp, #0xa0]
1000017d8: 910283fd    	add	x29, sp, #0xa0
1000017dc: f81f83a0    	stur	x0, [x29, #-0x8]
1000017e0: d2801780    	mov	x0, #0xbc               ; =188
1000017e4: 94001607    	bl	0x100007000 <_strncmp+0x100007000>
1000017e8: f81f03a0    	stur	x0, [x29, #-0x10]
1000017ec: d0000020    	adrp	x0, 0x100007000 <_strncmp+0x100007000>
1000017f0: 91173400    	add	x0, x0, #0x5cd
1000017f4: 94001612    	bl	0x10000703c <_strncmp+0x10000703c>
1000017f8: b81ec3bf    	stur	wzr, [x29, #-0x14]
1000017fc: f85f03a8    	ldur	x8, [x29, #-0x10]
100001800: 910003e9    	mov	x9, sp
100001804: f9000128    	str	x8, [x9]
100001808: d0000020    	adrp	x0, 0x100007000 <_strncmp+0x100007000>
10000180c: 91164c00    	add	x0, x0, #0x593
100001810: 9400161d    	bl	0x100007084 <_strncmp+0x100007084>
100001814: f85f03a8    	ldur	x8, [x29, #-0x10]
100001818: 910003e9    	mov	x9, sp
10000181c: f9000128    	str	x8, [x9]
100001820: d0000020    	adrp	x0, 0x100007000 <_strncmp+0x100007000>
100001824: 9117c800    	add	x0, x0, #0x5f2
100001828: 94001605    	bl	0x10000703c <_strncmp+0x10000703c>
10000182c: b81e83bf    	stur	wzr, [x29, #-0x18]
100001830: 14000001    	b	0x100001834 <_searchEmployeeByUsername+0x64>
100001834: b85e83a8    	ldur	w8, [x29, #-0x18]
100001838: 71032108    	subs	w8, w8, #0xc8
10000183c: 1a9fb7e8    	cset	w8, ge
100001840: 370005e8    	tbnz	w8, #0x0, 0x1000018fc <_searchEmployeeByUsername+0x12c>
100001844: 14000001    	b	0x100001848 <_searchEmployeeByUsername+0x78>
100001848: f85f83a8    	ldur	x8, [x29, #-0x8]
10000184c: b89e83a9    	ldursw	x9, [x29, #-0x18]
100001850: d2800f0a    	mov	x10, #0x78              ; =120
100001854: 9b0a7d29    	mul	x9, x9, x10
100001858: 8b090108    	add	x8, x8, x9
10000185c: f9401908    	ldr	x8, [x8, #0x30]
100001860: f1000108    	subs	x8, x8, #0x0
100001864: 1a9f17e8    	cset	w8, eq
100001868: 37000408    	tbnz	w8, #0x0, 0x1000018e8 <_searchEmployeeByUsername+0x118>
10000186c: 14000001    	b	0x100001870 <_searchEmployeeByUsername+0xa0>
100001870: f85f83a8    	ldur	x8, [x29, #-0x8]
100001874: b89e83a9    	ldursw	x9, [x29, #-0x18]
100001878: d2800f0a    	mov	x10, #0x78              ; =120
10000187c: 9b0a7d29    	mul	x9, x9, x10
100001880: 8b090108    	add	x8, x8, x9
100001884: f9401900    	ldr	x0, [x8, #0x30]
100001888: f85f03a1    	ldur	x1, [x29, #-0x10]
10000188c: 94001601    	bl	0x100007090 <_strncmp+0x100007090>
100001890: 71000008    	subs	w8, w0, #0x0
100001894: 1a9f07e8    	cset	w8, ne
100001898: 37000268    	tbnz	w8, #0x0, 0x1000018e4 <_searchEmployeeByUsername+0x114>
10000189c: 14000001    	b	0x1000018a0 <_searchEmployeeByUsername+0xd0>
1000018a0: f85f83a8    	ldur	x8, [x29, #-0x8]
1000018a4: b89e83a9    	ldursw	x9, [x29, #-0x18]
1000018a8: d2800f0a    	mov	x10, #0x78              ; =120
1000018ac: 9b0a7d29    	mul	x9, x9, x10
1000018b0: 8b090101    	add	x1, x8, x9
1000018b4: 910043e0    	add	x0, sp, #0x10
1000018b8: f90007e0    	str	x0, [sp, #0x8]
1000018bc: d2800f02    	mov	x2, #0x78               ; =120
1000018c0: 940015d3    	bl	0x10000700c <_strncmp+0x10000700c>
1000018c4: f94007e0    	ldr	x0, [sp, #0x8]
1000018c8: 97ffff18    	bl	0x100001528 <_displayEmployee>
1000018cc: d0000020    	adrp	x0, 0x100007000 <_strncmp+0x100007000>
1000018d0: 91145800    	add	x0, x0, #0x516
1000018d4: 940015da    	bl	0x10000703c <_strncmp+0x10000703c>
1000018d8: 52800028    	mov	w8, #0x1                ; =1
1000018dc: b81ec3a8    	stur	w8, [x29, #-0x14]
1000018e0: 14000001    	b	0x1000018e4 <_searchEmployeeByUsername+0x114>
1000018e4: 14000001    	b	0x1000018e8 <_searchEmployeeByUsername+0x118>
1000018e8: 14000001    	b	0x1000018ec <_searchEmployeeByUsername+0x11c>
1000018ec: b85e83a8    	ldur	w8, [x29, #-0x18]
1000018f0: 11000508    	add	w8, w8, #0x1
1000018f4: b81e83a8    	stur	w8, [x29, #-0x18]
1000018f8: 17ffffcf    	b	0x100001834 <_searchEmployeeByUsername+0x64>
1000018fc: b85ec3a8    	ldur	w8, [x29, #-0x14]
100001900: 71000108    	subs	w8, w8, #0x0
100001904: 1a9f07e8    	cset	w8, ne
100001908: 370000c8    	tbnz	w8, #0x0, 0x100001920 <_searchEmployeeByUsername+0x150>
10000190c: 14000001    	b	0x100001910 <_searchEmployeeByUsername+0x140>
100001910: d0000020    	adrp	x0, 0x100007000 <_strncmp+0x100007000>
100001914: 91166400    	add	x0, x0, #0x599
100001918: 940015c9    	bl	0x10000703c <_strncmp+0x10000703c>
10000191c: 14000001    	b	0x100001920 <_searchEmployeeByUsername+0x150>
100001920: f85f03a0    	ldur	x0, [x29, #-0x10]
100001924: 940015b4    	bl	0x100006ff4 <_strncmp+0x100006ff4>
100001928: a94a7bfd    	ldp	x29, x30, [sp, #0xa0]
10000192c: 9102c3ff    	add	sp, sp, #0xb0
100001930: d65f03c0    	ret

0000000100001934 <_createEmployee>:
100001934: d10283ff    	sub	sp, sp, #0xa0
100001938: a9097bfd    	stp	x29, x30, [sp, #0x90]
10000193c: 910243fd    	add	x29, sp, #0x90
100001940: f9000be8    	str	x8, [sp, #0x10]
100001944: f9400bae    	ldr	x14, [x29, #0x10]
100001948: f9400fad    	ldr	x13, [x29, #0x18]
10000194c: f94013ac    	ldr	x12, [x29, #0x20]
100001950: f94017ab    	ldr	x11, [x29, #0x28]
100001954: b94033aa    	ldr	w10, [x29, #0x30]
100001958: b94037a9    	ldr	w9, [x29, #0x34]
10000195c: f9401fa8    	ldr	x8, [x29, #0x38]
100001960: f81f83a0    	stur	x0, [x29, #-0x8]
100001964: f81f03a1    	stur	x1, [x29, #-0x10]
100001968: f81e83a2    	stur	x2, [x29, #-0x18]
10000196c: f81e03a3    	stur	x3, [x29, #-0x20]
100001970: f81d83a4    	stur	x4, [x29, #-0x28]
100001974: f81d03a5    	stur	x5, [x29, #-0x30]
100001978: f81c83a6    	stur	x6, [x29, #-0x38]
10000197c: f81c03a7    	stur	x7, [x29, #-0x40]
100001980: f90027ee    	str	x14, [sp, #0x48]
100001984: f90023ed    	str	x13, [sp, #0x40]
100001988: f9001fec    	str	x12, [sp, #0x38]
10000198c: f9001beb    	str	x11, [sp, #0x30]
100001990: b9002fea    	str	w10, [sp, #0x2c]
100001994: b9002be9    	str	w9, [sp, #0x28]
100001998: bd0027e0    	str	s0, [sp, #0x24]
10000199c: f9000fe8    	str	x8, [sp, #0x18]
1000019a0: f85f83a0    	ldur	x0, [x29, #-0x8]
1000019a4: 940015be    	bl	0x10000709c <_strncmp+0x10000709c>
1000019a8: f9400be8    	ldr	x8, [sp, #0x10]
1000019ac: f9000100    	str	x0, [x8]
1000019b0: f85f03a0    	ldur	x0, [x29, #-0x10]
1000019b4: 940015ba    	bl	0x10000709c <_strncmp+0x10000709c>
1000019b8: f9400be8    	ldr	x8, [sp, #0x10]
1000019bc: f9000500    	str	x0, [x8, #0x8]
1000019c0: f85e83a0    	ldur	x0, [x29, #-0x18]
1000019c4: 940015b6    	bl	0x10000709c <_strncmp+0x10000709c>
1000019c8: f9400be8    	ldr	x8, [sp, #0x10]
1000019cc: f9000900    	str	x0, [x8, #0x10]
1000019d0: f85e03a0    	ldur	x0, [x29, #-0x20]
1000019d4: 940015b2    	bl	0x10000709c <_strncmp+0x10000709c>
1000019d8: f9400be8    	ldr	x8, [sp, #0x10]
1000019dc: f9000d00    	str	x0, [x8, #0x18]
1000019e0: f85d83a0    	ldur	x0, [x29, #-0x28]
1000019e4: 940015ae    	bl	0x10000709c <_strncmp+0x10000709c>
1000019e8: f9400be8    	ldr	x8, [sp, #0x10]
1000019ec: f9001100    	str	x0, [x8, #0x20]
1000019f0: f85d03a0    	ldur	x0, [x29, #-0x30]
1000019f4: 940015aa    	bl	0x10000709c <_strncmp+0x10000709c>
1000019f8: f9400be8    	ldr	x8, [sp, #0x10]
1000019fc: f9001500    	str	x0, [x8, #0x28]
100001a00: f85c83a0    	ldur	x0, [x29, #-0x38]
100001a04: 940015a6    	bl	0x10000709c <_strncmp+0x10000709c>
100001a08: f9400be8    	ldr	x8, [sp, #0x10]
100001a0c: f9001900    	str	x0, [x8, #0x30]
100001a10: d2801780    	mov	x0, #0xbc               ; =188
100001a14: 9400157b    	bl	0x100007000 <_strncmp+0x100007000>
100001a18: f9400be8    	ldr	x8, [sp, #0x10]
100001a1c: f9001d00    	str	x0, [x8, #0x38]
100001a20: f9401d08    	ldr	x8, [x8, #0x38]
100001a24: f1000108    	subs	x8, x8, #0x0
100001a28: 1a9f07e8    	cset	w8, ne
100001a2c: 370000e8    	tbnz	w8, #0x0, 0x100001a48 <_createEmployee+0x114>
100001a30: 14000001    	b	0x100001a34 <_createEmployee+0x100>
100001a34: d0000020    	adrp	x0, 0x100007000 <_strncmp+0x100007000>
100001a38: 91182800    	add	x0, x0, #0x60a
100001a3c: 9400157d    	bl	0x100007030 <_strncmp+0x100007030>
100001a40: 52800020    	mov	w0, #0x1                ; =1
100001a44: 94001560    	bl	0x100006fc4 <_strncmp+0x100006fc4>
100001a48: f9400be8    	ldr	x8, [sp, #0x10]
100001a4c: f9401d00    	ldr	x0, [x8, #0x38]
100001a50: f85c03a8    	ldur	x8, [x29, #-0x40]
100001a54: 910003e9    	mov	x9, sp
100001a58: f9000128    	str	x8, [x9]
100001a5c: d2801781    	mov	x1, #0xbc               ; =188
100001a60: f90007e1    	str	x1, [sp, #0x8]
100001a64: 52800002    	mov	w2, #0x0                ; =0
100001a68: 92800003    	mov	x3, #-0x1               ; =-1
100001a6c: d0000024    	adrp	x4, 0x100007000 <_strncmp+0x100007000>
100001a70: 9118b084    	add	x4, x4, #0x62c
100001a74: 9400153f    	bl	0x100006f70 <_strncmp+0x100006f70>
100001a78: f94027e0    	ldr	x0, [sp, #0x48]
100001a7c: 94001588    	bl	0x10000709c <_strncmp+0x10000709c>
100001a80: f9400be8    	ldr	x8, [sp, #0x10]
100001a84: f9002100    	str	x0, [x8, #0x40]
100001a88: f94023e0    	ldr	x0, [sp, #0x40]
100001a8c: 94001584    	bl	0x10000709c <_strncmp+0x10000709c>
100001a90: f9400be8    	ldr	x8, [sp, #0x10]
100001a94: f9002500    	str	x0, [x8, #0x48]
100001a98: f9401fe0    	ldr	x0, [sp, #0x38]
100001a9c: 94001580    	bl	0x10000709c <_strncmp+0x10000709c>
100001aa0: f9400be8    	ldr	x8, [sp, #0x10]
100001aa4: f9002900    	str	x0, [x8, #0x50]
100001aa8: f9401be0    	ldr	x0, [sp, #0x30]
100001aac: 9400157c    	bl	0x10000709c <_strncmp+0x10000709c>
100001ab0: f9400be8    	ldr	x8, [sp, #0x10]
100001ab4: aa0003e9    	mov	x9, x0
100001ab8: f94007e0    	ldr	x0, [sp, #0x8]
100001abc: f9002d09    	str	x9, [x8, #0x58]
100001ac0: b9402fe9    	ldr	w9, [sp, #0x2c]
100001ac4: b9006109    	str	w9, [x8, #0x60]
100001ac8: b9402be9    	ldr	w9, [sp, #0x28]
100001acc: b9006509    	str	w9, [x8, #0x64]
100001ad0: bd4027e0    	ldr	s0, [sp, #0x24]
100001ad4: bd006900    	str	s0, [x8, #0x68]
100001ad8: 9400154a    	bl	0x100007000 <_strncmp+0x100007000>
100001adc: f9400be8    	ldr	x8, [sp, #0x10]
100001ae0: f9003900    	str	x0, [x8, #0x70]
100001ae4: f9403908    	ldr	x8, [x8, #0x70]
100001ae8: f1000108    	subs	x8, x8, #0x0
100001aec: 1a9f07e8    	cset	w8, ne
100001af0: 370000e8    	tbnz	w8, #0x0, 0x100001b0c <_createEmployee+0x1d8>
100001af4: 14000001    	b	0x100001af8 <_createEmployee+0x1c4>
100001af8: d0000020    	adrp	x0, 0x100007000 <_strncmp+0x100007000>
100001afc: 91182800    	add	x0, x0, #0x60a
100001b00: 9400154c    	bl	0x100007030 <_strncmp+0x100007030>
100001b04: 52800020    	mov	w0, #0x1                ; =1
100001b08: 9400152f    	bl	0x100006fc4 <_strncmp+0x100006fc4>
100001b0c: f9400be8    	ldr	x8, [sp, #0x10]
100001b10: f9403900    	ldr	x0, [x8, #0x70]
100001b14: f9400fe8    	ldr	x8, [sp, #0x18]
100001b18: 910003e9    	mov	x9, sp
100001b1c: f9000128    	str	x8, [x9]
100001b20: d2801781    	mov	x1, #0xbc               ; =188
100001b24: 52800002    	mov	w2, #0x0                ; =0
100001b28: 92800003    	mov	x3, #-0x1               ; =-1
100001b2c: d0000024    	adrp	x4, 0x100007000 <_strncmp+0x100007000>
100001b30: 9118b084    	add	x4, x4, #0x62c
100001b34: 9400150f    	bl	0x100006f70 <_strncmp+0x100006f70>
100001b38: a9497bfd    	ldp	x29, x30, [sp, #0x90]
100001b3c: 910283ff    	add	sp, sp, #0xa0
100001b40: d65f03c0    	ret

0000000100001b44 <_freeEmployee>:
100001b44: d10083ff    	sub	sp, sp, #0x20
100001b48: a9017bfd    	stp	x29, x30, [sp, #0x10]
100001b4c: 910043fd    	add	x29, sp, #0x10
100001b50: f90007e0    	str	x0, [sp, #0x8]
100001b54: f94007e8    	ldr	x8, [sp, #0x8]
100001b58: f1000108    	subs	x8, x8, #0x0
100001b5c: 1a9f07e8    	cset	w8, ne
100001b60: 37000068    	tbnz	w8, #0x0, 0x100001b6c <_freeEmployee+0x28>
100001b64: 14000001    	b	0x100001b68 <_freeEmployee+0x24>
100001b68: 14000043    	b	0x100001c74 <_freeEmployee+0x130>
100001b6c: f94007e8    	ldr	x8, [sp, #0x8]
100001b70: f9400100    	ldr	x0, [x8]
100001b74: 94001520    	bl	0x100006ff4 <_strncmp+0x100006ff4>
100001b78: f94007e8    	ldr	x8, [sp, #0x8]
100001b7c: f9400500    	ldr	x0, [x8, #0x8]
100001b80: 9400151d    	bl	0x100006ff4 <_strncmp+0x100006ff4>
100001b84: f94007e8    	ldr	x8, [sp, #0x8]
100001b88: f9400900    	ldr	x0, [x8, #0x10]
100001b8c: 9400151a    	bl	0x100006ff4 <_strncmp+0x100006ff4>
100001b90: f94007e8    	ldr	x8, [sp, #0x8]
100001b94: f9400d00    	ldr	x0, [x8, #0x18]
100001b98: 94001517    	bl	0x100006ff4 <_strncmp+0x100006ff4>
100001b9c: f94007e8    	ldr	x8, [sp, #0x8]
100001ba0: f9401100    	ldr	x0, [x8, #0x20]
100001ba4: 94001514    	bl	0x100006ff4 <_strncmp+0x100006ff4>
100001ba8: f94007e8    	ldr	x8, [sp, #0x8]
100001bac: f9401500    	ldr	x0, [x8, #0x28]
100001bb0: 94001511    	bl	0x100006ff4 <_strncmp+0x100006ff4>
100001bb4: f94007e8    	ldr	x8, [sp, #0x8]
100001bb8: f9401900    	ldr	x0, [x8, #0x30]
100001bbc: 9400150e    	bl	0x100006ff4 <_strncmp+0x100006ff4>
100001bc0: f94007e8    	ldr	x8, [sp, #0x8]
100001bc4: f9401d00    	ldr	x0, [x8, #0x38]
100001bc8: 9400150b    	bl	0x100006ff4 <_strncmp+0x100006ff4>
100001bcc: f94007e8    	ldr	x8, [sp, #0x8]
100001bd0: f9402100    	ldr	x0, [x8, #0x40]
100001bd4: 94001508    	bl	0x100006ff4 <_strncmp+0x100006ff4>
100001bd8: f94007e8    	ldr	x8, [sp, #0x8]
100001bdc: f9402500    	ldr	x0, [x8, #0x48]
100001be0: 94001505    	bl	0x100006ff4 <_strncmp+0x100006ff4>
100001be4: f94007e8    	ldr	x8, [sp, #0x8]
100001be8: f9402900    	ldr	x0, [x8, #0x50]
100001bec: 94001502    	bl	0x100006ff4 <_strncmp+0x100006ff4>
100001bf0: f94007e8    	ldr	x8, [sp, #0x8]
100001bf4: f9402d00    	ldr	x0, [x8, #0x58]
100001bf8: 940014ff    	bl	0x100006ff4 <_strncmp+0x100006ff4>
100001bfc: f94007e8    	ldr	x8, [sp, #0x8]
100001c00: f9403900    	ldr	x0, [x8, #0x70]
100001c04: 940014fc    	bl	0x100006ff4 <_strncmp+0x100006ff4>
100001c08: f94007e8    	ldr	x8, [sp, #0x8]
100001c0c: f900011f    	str	xzr, [x8]
100001c10: f94007e8    	ldr	x8, [sp, #0x8]
100001c14: f900051f    	str	xzr, [x8, #0x8]
100001c18: f94007e8    	ldr	x8, [sp, #0x8]
100001c1c: f900091f    	str	xzr, [x8, #0x10]
100001c20: f94007e8    	ldr	x8, [sp, #0x8]
100001c24: f9000d1f    	str	xzr, [x8, #0x18]
100001c28: f94007e8    	ldr	x8, [sp, #0x8]
100001c2c: f900111f    	str	xzr, [x8, #0x20]
100001c30: f94007e8    	ldr	x8, [sp, #0x8]
100001c34: f900151f    	str	xzr, [x8, #0x28]
100001c38: f94007e8    	ldr	x8, [sp, #0x8]
100001c3c: f900191f    	str	xzr, [x8, #0x30]
100001c40: f94007e8    	ldr	x8, [sp, #0x8]
100001c44: f9001d1f    	str	xzr, [x8, #0x38]
100001c48: f94007e8    	ldr	x8, [sp, #0x8]
100001c4c: f900211f    	str	xzr, [x8, #0x40]
100001c50: f94007e8    	ldr	x8, [sp, #0x8]
100001c54: f900251f    	str	xzr, [x8, #0x48]
100001c58: f94007e8    	ldr	x8, [sp, #0x8]
100001c5c: f900291f    	str	xzr, [x8, #0x50]
100001c60: f94007e8    	ldr	x8, [sp, #0x8]
100001c64: f9002d1f    	str	xzr, [x8, #0x58]
100001c68: f94007e8    	ldr	x8, [sp, #0x8]
100001c6c: f900391f    	str	xzr, [x8, #0x70]
100001c70: 14000001    	b	0x100001c74 <_freeEmployee+0x130>
100001c74: a9417bfd    	ldp	x29, x30, [sp, #0x10]
100001c78: 910083ff    	add	sp, sp, #0x20
100001c7c: d65f03c0    	ret

0000000100001c80 <_freeEmployees>:
100001c80: d10083ff    	sub	sp, sp, #0x20
100001c84: a9017bfd    	stp	x29, x30, [sp, #0x10]
100001c88: 910043fd    	add	x29, sp, #0x10
100001c8c: f90007e0    	str	x0, [sp, #0x8]
100001c90: b90007e1    	str	w1, [sp, #0x4]
100001c94: f94007e8    	ldr	x8, [sp, #0x8]
100001c98: f1000108    	subs	x8, x8, #0x0
100001c9c: 1a9f07e8    	cset	w8, ne
100001ca0: 37000068    	tbnz	w8, #0x0, 0x100001cac <_freeEmployees+0x2c>
100001ca4: 14000001    	b	0x100001ca8 <_freeEmployees+0x28>
100001ca8: 1400001e    	b	0x100001d20 <_freeEmployees+0xa0>
100001cac: b90003ff    	str	wzr, [sp]
100001cb0: 14000001    	b	0x100001cb4 <_freeEmployees+0x34>
100001cb4: b94003e8    	ldr	w8, [sp]
100001cb8: b94007e9    	ldr	w9, [sp, #0x4]
100001cbc: 6b090108    	subs	w8, w8, w9
100001cc0: 1a9fb7e8    	cset	w8, ge
100001cc4: 370002e8    	tbnz	w8, #0x0, 0x100001d20 <_freeEmployees+0xa0>
100001cc8: 14000001    	b	0x100001ccc <_freeEmployees+0x4c>
100001ccc: f94007e8    	ldr	x8, [sp, #0x8]
100001cd0: b98003e9    	ldrsw	x9, [sp]
100001cd4: d2800f0a    	mov	x10, #0x78              ; =120
100001cd8: 9b0a7d29    	mul	x9, x9, x10
100001cdc: f8696908    	ldr	x8, [x8, x9]
100001ce0: f1000108    	subs	x8, x8, #0x0
100001ce4: 1a9f07e8    	cset	w8, ne
100001ce8: 37000068    	tbnz	w8, #0x0, 0x100001cf4 <_freeEmployees+0x74>
100001cec: 14000001    	b	0x100001cf0 <_freeEmployees+0x70>
100001cf0: 1400000c    	b	0x100001d20 <_freeEmployees+0xa0>
100001cf4: f94007e8    	ldr	x8, [sp, #0x8]
100001cf8: b98003e9    	ldrsw	x9, [sp]
100001cfc: d2800f0a    	mov	x10, #0x78              ; =120
100001d00: 9b0a7d29    	mul	x9, x9, x10
100001d04: 8b090100    	add	x0, x8, x9
100001d08: 97ffff8f    	bl	0x100001b44 <_freeEmployee>
100001d0c: 14000001    	b	0x100001d10 <_freeEmployees+0x90>
100001d10: b94003e8    	ldr	w8, [sp]
100001d14: 11000508    	add	w8, w8, #0x1
100001d18: b90003e8    	str	w8, [sp]
100001d1c: 17ffffe6    	b	0x100001cb4 <_freeEmployees+0x34>
100001d20: a9417bfd    	ldp	x29, x30, [sp, #0x10]
100001d24: 910083ff    	add	sp, sp, #0x20
100001d28: d65f03c0    	ret

0000000100001d2c <_hashPasscode>:
100001d2c: d10243ff    	sub	sp, sp, #0x90
100001d30: a9087bfd    	stp	x29, x30, [sp, #0x80]
100001d34: 910203fd    	add	x29, sp, #0x80
100001d38: f0000028    	adrp	x8, 0x100008000 <_strncmp+0x100008000>
100001d3c: f9401108    	ldr	x8, [x8, #0x20]
100001d40: f9400108    	ldr	x8, [x8]
100001d44: f81f83a8    	stur	x8, [x29, #-0x8]
100001d48: f81d83a0    	stur	x0, [x29, #-0x28]
100001d4c: f81d03a1    	stur	x1, [x29, #-0x30]
100001d50: f81c83a2    	stur	x2, [x29, #-0x38]
100001d54: f85d83a0    	ldur	x0, [x29, #-0x28]
100001d58: 940014d4    	bl	0x1000070a8 <_strncmp+0x1000070a8>
100001d5c: f90023e0    	str	x0, [sp, #0x40]
100001d60: 52800060    	mov	w0, #0x3                ; =3
100001d64: 52a00021    	mov	w1, #0x10000            ; =65536
100001d68: 52800025    	mov	w5, #0x1                ; =1
100001d6c: aa0503e2    	mov	x2, x5
100001d70: 52800203    	mov	w3, #0x10               ; =16
100001d74: 52800c84    	mov	w4, #0x64               ; =100
100001d78: 940005b0    	bl	0x100003438 <_argon2_encodedlen>
100001d7c: f9001fe0    	str	x0, [sp, #0x38]
100001d80: d0000020    	adrp	x0, 0x100007000 <_strncmp+0x100007000>
100001d84: 9118bc00    	add	x0, x0, #0x62f
100001d88: 52800001    	mov	w1, #0x0                ; =0
100001d8c: 940014a6    	bl	0x100007024 <_strncmp+0x100007024>
100001d90: b90037e0    	str	w0, [sp, #0x34]
100001d94: b94037e8    	ldr	w8, [sp, #0x34]
100001d98: 31000508    	adds	w8, w8, #0x1
100001d9c: 1a9f07e8    	cset	w8, ne
100001da0: 37000168    	tbnz	w8, #0x0, 0x100001dcc <_hashPasscode+0xa0>
100001da4: 14000001    	b	0x100001da8 <_hashPasscode+0x7c>
100001da8: f0000028    	adrp	x8, 0x100008000 <_strncmp+0x100008000>
100001dac: f9401508    	ldr	x8, [x8, #0x28]
100001db0: f9400100    	ldr	x0, [x8]
100001db4: d0000021    	adrp	x1, 0x100007000 <_strncmp+0x100007000>
100001db8: 9118f021    	add	x1, x1, #0x63c
100001dbc: 9400148b    	bl	0x100006fe8 <_strncmp+0x100006fe8>
100001dc0: 12800048    	mov	w8, #-0x3               ; =-3
100001dc4: b81e43a8    	stur	w8, [x29, #-0x1c]
100001dc8: 14000054    	b	0x100001f18 <_hashPasscode+0x1ec>
100001dcc: b94037e0    	ldr	w0, [sp, #0x34]
100001dd0: d10063a1    	sub	x1, x29, #0x18
100001dd4: d2800202    	mov	x2, #0x10               ; =16
100001dd8: 940014a8    	bl	0x100007078 <_strncmp+0x100007078>
100001ddc: f90017e0    	str	x0, [sp, #0x28]
100001de0: b94037e0    	ldr	w0, [sp, #0x34]
100001de4: 94001475    	bl	0x100006fb8 <_strncmp+0x100006fb8>
100001de8: f94017e8    	ldr	x8, [sp, #0x28]
100001dec: f1004108    	subs	x8, x8, #0x10
100001df0: 1a9f17e8    	cset	w8, eq
100001df4: 37000208    	tbnz	w8, #0x0, 0x100001e34 <_hashPasscode+0x108>
100001df8: 14000001    	b	0x100001dfc <_hashPasscode+0xd0>
100001dfc: f0000028    	adrp	x8, 0x100008000 <_strncmp+0x100008000>
100001e00: f9401508    	ldr	x8, [x8, #0x28]
100001e04: f9400100    	ldr	x0, [x8]
100001e08: f94017e8    	ldr	x8, [sp, #0x28]
100001e0c: 910003e9    	mov	x9, sp
100001e10: d280020a    	mov	x10, #0x10              ; =16
100001e14: f900012a    	str	x10, [x9]
100001e18: f9000528    	str	x8, [x9, #0x8]
100001e1c: d0000021    	adrp	x1, 0x100007000 <_strncmp+0x100007000>
100001e20: 91198021    	add	x1, x1, #0x660
100001e24: 94001471    	bl	0x100006fe8 <_strncmp+0x100006fe8>
100001e28: 12800068    	mov	w8, #-0x4               ; =-4
100001e2c: b81e43a8    	stur	w8, [x29, #-0x1c]
100001e30: 1400003a    	b	0x100001f18 <_hashPasscode+0x1ec>
100001e34: f85c83a8    	ldur	x8, [x29, #-0x38]
100001e38: f9401fe9    	ldr	x9, [sp, #0x38]
100001e3c: eb090108    	subs	x8, x8, x9
100001e40: 1a9f37e8    	cset	w8, hs
100001e44: 37000208    	tbnz	w8, #0x0, 0x100001e84 <_hashPasscode+0x158>
100001e48: 14000001    	b	0x100001e4c <_hashPasscode+0x120>
100001e4c: f0000028    	adrp	x8, 0x100008000 <_strncmp+0x100008000>
100001e50: f9401508    	ldr	x8, [x8, #0x28]
100001e54: f9400100    	ldr	x0, [x8]
100001e58: f85c83aa    	ldur	x10, [x29, #-0x38]
100001e5c: f9401fe8    	ldr	x8, [sp, #0x38]
100001e60: 910003e9    	mov	x9, sp
100001e64: f900012a    	str	x10, [x9]
100001e68: f9000528    	str	x8, [x9, #0x8]
100001e6c: d0000021    	adrp	x1, 0x100007000 <_strncmp+0x100007000>
100001e70: 911a7421    	add	x1, x1, #0x69d
100001e74: 9400145d    	bl	0x100006fe8 <_strncmp+0x100006fe8>
100001e78: 12800028    	mov	w8, #-0x2               ; =-2
100001e7c: b81e43a8    	stur	w8, [x29, #-0x1c]
100001e80: 14000026    	b	0x100001f18 <_hashPasscode+0x1ec>
100001e84: f85d83a3    	ldur	x3, [x29, #-0x28]
100001e88: f94023e4    	ldr	x4, [sp, #0x40]
100001e8c: f85d03aa    	ldur	x10, [x29, #-0x30]
100001e90: f85c83a8    	ldur	x8, [x29, #-0x38]
100001e94: 910003e9    	mov	x9, sp
100001e98: f900012a    	str	x10, [x9]
100001e9c: f9000528    	str	x8, [x9, #0x8]
100001ea0: 52800060    	mov	w0, #0x3                ; =3
100001ea4: 52a00021    	mov	w1, #0x10000            ; =65536
100001ea8: 52800022    	mov	w2, #0x1                ; =1
100001eac: d10063a5    	sub	x5, x29, #0x18
100001eb0: d2800206    	mov	x6, #0x10               ; =16
100001eb4: d2800c87    	mov	x7, #0x64               ; =100
100001eb8: 940002d7    	bl	0x100002a14 <_argon2i_hash_encoded>
100001ebc: b90027e0    	str	w0, [sp, #0x24]
100001ec0: b94027e8    	ldr	w8, [sp, #0x24]
100001ec4: 71000108    	subs	w8, w8, #0x0
100001ec8: 1a9f17e8    	cset	w8, eq
100001ecc: 37000208    	tbnz	w8, #0x0, 0x100001f0c <_hashPasscode+0x1e0>
100001ed0: 14000001    	b	0x100001ed4 <_hashPasscode+0x1a8>
100001ed4: f0000028    	adrp	x8, 0x100008000 <_strncmp+0x100008000>
100001ed8: f9401508    	ldr	x8, [x8, #0x28]
100001edc: f9400108    	ldr	x8, [x8]
100001ee0: f9000fe8    	str	x8, [sp, #0x18]
100001ee4: b94027e0    	ldr	w0, [sp, #0x24]
100001ee8: 9400054a    	bl	0x100003410 <_argon2_error_message>
100001eec: aa0003e8    	mov	x8, x0
100001ef0: f9400fe0    	ldr	x0, [sp, #0x18]
100001ef4: 910003e9    	mov	x9, sp
100001ef8: f9000128    	str	x8, [x9]
100001efc: d0000021    	adrp	x1, 0x100007000 <_strncmp+0x100007000>
100001f00: 911ba821    	add	x1, x1, #0x6ea
100001f04: 94001439    	bl	0x100006fe8 <_strncmp+0x100006fe8>
100001f08: 14000001    	b	0x100001f0c <_hashPasscode+0x1e0>
100001f0c: b94027e8    	ldr	w8, [sp, #0x24]
100001f10: b81e43a8    	stur	w8, [x29, #-0x1c]
100001f14: 14000001    	b	0x100001f18 <_hashPasscode+0x1ec>
100001f18: b85e43a8    	ldur	w8, [x29, #-0x1c]
100001f1c: b90017e8    	str	w8, [sp, #0x14]
100001f20: f85f83a9    	ldur	x9, [x29, #-0x8]
100001f24: f0000028    	adrp	x8, 0x100008000 <_strncmp+0x100008000>
100001f28: f9401108    	ldr	x8, [x8, #0x20]
100001f2c: f9400108    	ldr	x8, [x8]
100001f30: eb090108    	subs	x8, x8, x9
100001f34: 1a9f17e8    	cset	w8, eq
100001f38: 37000068    	tbnz	w8, #0x0, 0x100001f44 <_hashPasscode+0x218>
100001f3c: 14000001    	b	0x100001f40 <_hashPasscode+0x214>
100001f40: 94001412    	bl	0x100006f88 <_strncmp+0x100006f88>
100001f44: b94017e0    	ldr	w0, [sp, #0x14]
100001f48: a9487bfd    	ldp	x29, x30, [sp, #0x80]
100001f4c: 910243ff    	add	sp, sp, #0x90
100001f50: d65f03c0    	ret

0000000100001f54 <_createUserName>:
100001f54: d10143ff    	sub	sp, sp, #0x50
100001f58: a9047bfd    	stp	x29, x30, [sp, #0x40]
100001f5c: 910103fd    	add	x29, sp, #0x40
100001f60: f81f83a0    	stur	x0, [x29, #-0x8]
100001f64: d29158e8    	mov	x8, #0x8ac7             ; =35527
100001f68: f2a01528    	movk	x8, #0xa9, lsl #16
100001f6c: f81f03a8    	stur	x8, [x29, #-0x10]
100001f70: d29c1fe8    	mov	x8, #0xe0ff             ; =57599
100001f74: f2a0bea8    	movk	x8, #0x5f5, lsl #16
100001f78: f81e83a8    	stur	x8, [x29, #-0x18]
100001f7c: 9400143c    	bl	0x10000706c <_strncmp+0x10000706c>
100001f80: aa0003e8    	mov	x8, x0
100001f84: 93407d08    	sxtw	x8, w8
100001f88: f85e83a9    	ldur	x9, [x29, #-0x18]
100001f8c: f85f03aa    	ldur	x10, [x29, #-0x10]
100001f90: eb0a0129    	subs	x9, x9, x10
100001f94: 9100052a    	add	x10, x9, #0x1
100001f98: 9aca0909    	udiv	x9, x8, x10
100001f9c: 9b0a7d29    	mul	x9, x9, x10
100001fa0: eb090108    	subs	x8, x8, x9
100001fa4: f85f03a9    	ldur	x9, [x29, #-0x10]
100001fa8: 8b090108    	add	x8, x8, x9
100001fac: f90013e8    	str	x8, [sp, #0x20]
100001fb0: d2800160    	mov	x0, #0xb                ; =11
100001fb4: f9000fe0    	str	x0, [sp, #0x18]
100001fb8: 94001412    	bl	0x100007000 <_strncmp+0x100007000>
100001fbc: f9000be0    	str	x0, [sp, #0x10]
100001fc0: f9400be8    	ldr	x8, [sp, #0x10]
100001fc4: f1000108    	subs	x8, x8, #0x0
100001fc8: 1a9f07e8    	cset	w8, ne
100001fcc: 370000c8    	tbnz	w8, #0x0, 0x100001fe4 <_createUserName+0x90>
100001fd0: 14000001    	b	0x100001fd4 <_createUserName+0x80>
100001fd4: d0000020    	adrp	x0, 0x100007000 <_strncmp+0x100007000>
100001fd8: 911c1400    	add	x0, x0, #0x705
100001fdc: 94001415    	bl	0x100007030 <_strncmp+0x100007030>
100001fe0: 1400000f    	b	0x10000201c <_createUserName+0xc8>
100001fe4: f9400be0    	ldr	x0, [sp, #0x10]
100001fe8: f94013e8    	ldr	x8, [sp, #0x20]
100001fec: 910003e9    	mov	x9, sp
100001ff0: f9000128    	str	x8, [x9]
100001ff4: d2800161    	mov	x1, #0xb                ; =11
100001ff8: 52800002    	mov	w2, #0x0                ; =0
100001ffc: 92800003    	mov	x3, #-0x1               ; =-1
100002000: b0000024    	adrp	x4, 0x100007000 <_strncmp+0x100007000>
100002004: 911c7c84    	add	x4, x4, #0x71f
100002008: 940013da    	bl	0x100006f70 <_strncmp+0x100006f70>
10000200c: f9400be8    	ldr	x8, [sp, #0x10]
100002010: f85f83a9    	ldur	x9, [x29, #-0x8]
100002014: f9001928    	str	x8, [x9, #0x30]
100002018: 14000001    	b	0x10000201c <_createUserName+0xc8>
10000201c: a9447bfd    	ldp	x29, x30, [sp, #0x40]
100002020: 910143ff    	add	sp, sp, #0x50
100002024: d65f03c0    	ret

0000000100002028 <_main>:
100002028: a9be6ffc    	stp	x28, x27, [sp, #-0x20]!
10000202c: a9017bfd    	stp	x29, x30, [sp, #0x10]
100002030: 910043fd    	add	x29, sp, #0x10
100002034: d10a83ff    	sub	sp, sp, #0x2a0
100002038: b81ec3bf    	stur	wzr, [x29, #-0x14]
10000203c: 940013dc    	bl	0x100006fac <_strncmp+0x100006fac>
100002040: f81e03a0    	stur	x0, [x29, #-0x20]
100002044: b0000020    	adrp	x0, 0x100007000 <_strncmp+0x100007000>
100002048: 911c9400    	add	x0, x0, #0x725
10000204c: b0000021    	adrp	x1, 0x100007000 <_strncmp+0x100007000>
100002050: 911cdc21    	add	x1, x1, #0x737
100002054: 940013e2    	bl	0x100006fdc <_strncmp+0x100006fdc>
100002058: f81c83a0    	stur	x0, [x29, #-0x38]
10000205c: f85c83a8    	ldur	x8, [x29, #-0x38]
100002060: f1000108    	subs	x8, x8, #0x0
100002064: 1a9f07e8    	cset	w8, ne
100002068: 370000e8    	tbnz	w8, #0x0, 0x100002084 <_main+0x5c>
10000206c: 14000001    	b	0x100002070 <_main+0x48>
100002070: b0000020    	adrp	x0, 0x100007000 <_strncmp+0x100007000>
100002074: 911ce400    	add	x0, x0, #0x739
100002078: 940013ee    	bl	0x100007030 <_strncmp+0x100007030>
10000207c: 52800020    	mov	w0, #0x1                ; =1
100002080: 940013d1    	bl	0x100006fc4 <_strncmp+0x100006fc4>
100002084: d2801900    	mov	x0, #0xc8               ; =200
100002088: d2800f01    	mov	x1, #0x78               ; =120
10000208c: 940013c5    	bl	0x100006fa0 <_strncmp+0x100006fa0>
100002090: f81c03a0    	stur	x0, [x29, #-0x40]
100002094: f85c03a8    	ldur	x8, [x29, #-0x40]
100002098: f1000108    	subs	x8, x8, #0x0
10000209c: 1a9f07e8    	cset	w8, ne
1000020a0: 37000108    	tbnz	w8, #0x0, 0x1000020c0 <_main+0x98>
1000020a4: 14000001    	b	0x1000020a8 <_main+0x80>
1000020a8: b0000020    	adrp	x0, 0x100007000 <_strncmp+0x100007000>
1000020ac: 911d9c00    	add	x0, x0, #0x767
1000020b0: 940013e0    	bl	0x100007030 <_strncmp+0x100007030>
1000020b4: 52800028    	mov	w8, #0x1                ; =1
1000020b8: b81ec3a8    	stur	w8, [x29, #-0x14]
1000020bc: 1400019f    	b	0x100002738 <_main+0x710>
1000020c0: b0000020    	adrp	x0, 0x100007000 <_strncmp+0x100007000>
1000020c4: 911e4400    	add	x0, x0, #0x791
1000020c8: 940013dd    	bl	0x10000703c <_strncmp+0x10000703c>
1000020cc: 14000001    	b	0x1000020d0 <_main+0xa8>
1000020d0: 910003e9    	mov	x9, sp
1000020d4: b0000028    	adrp	x8, 0x100007000 <_strncmp+0x100007000>
1000020d8: 91204508    	add	x8, x8, #0x811
1000020dc: f9000128    	str	x8, [x9]
1000020e0: b0000028    	adrp	x8, 0x100007000 <_strncmp+0x100007000>
1000020e4: 91206908    	add	x8, x8, #0x81a
1000020e8: f9000528    	str	x8, [x9, #0x8]
1000020ec: b0000028    	adrp	x8, 0x100007000 <_strncmp+0x100007000>
1000020f0: 91208d08    	add	x8, x8, #0x823
1000020f4: f9000928    	str	x8, [x9, #0x10]
1000020f8: b0000028    	adrp	x8, 0x100007000 <_strncmp+0x100007000>
1000020fc: 9120a508    	add	x8, x8, #0x829
100002100: f9000d28    	str	x8, [x9, #0x18]
100002104: 528a7568    	mov	w8, #0x53ab             ; =21419
100002108: 72a27ea8    	movk	w8, #0x13f5, lsl #16
10000210c: b9002128    	str	w8, [x9, #0x20]
100002110: 52872ee8    	mov	w8, #0x3977             ; =14711
100002114: 72a000a8    	movk	w8, #0x5, lsl #16
100002118: b9002528    	str	w8, [x9, #0x24]
10000211c: b0000028    	adrp	x8, 0x100007000 <_strncmp+0x100007000>
100002120: 9120b508    	add	x8, x8, #0x82d
100002124: f9001528    	str	x8, [x9, #0x28]
100002128: d102e3a8    	sub	x8, x29, #0xb8
10000212c: f9005fe8    	str	x8, [sp, #0xb8]
100002130: b0000020    	adrp	x0, 0x100007000 <_strncmp+0x100007000>
100002134: 911e9c00    	add	x0, x0, #0x7a7
100002138: b0000021    	adrp	x1, 0x100007000 <_strncmp+0x100007000>
10000213c: 911ebc21    	add	x1, x1, #0x7af
100002140: b0000022    	adrp	x2, 0x100007000 <_strncmp+0x100007000>
100002144: 911ed842    	add	x2, x2, #0x7b6
100002148: b0000023    	adrp	x3, 0x100007000 <_strncmp+0x100007000>
10000214c: 911efc63    	add	x3, x3, #0x7bf
100002150: b0000024    	adrp	x4, 0x100007000 <_strncmp+0x100007000>
100002154: 911f3084    	add	x4, x4, #0x7cc
100002158: b0000025    	adrp	x5, 0x100007000 <_strncmp+0x100007000>
10000215c: 911fa0a5    	add	x5, x5, #0x7e8
100002160: b0000026    	adrp	x6, 0x100007000 <_strncmp+0x100007000>
100002164: 911ff0c6    	add	x6, x6, #0x7fc
100002168: f90057e6    	str	x6, [sp, #0xa8]
10000216c: b0000027    	adrp	x7, 0x100007000 <_strncmp+0x100007000>
100002170: 912004e7    	add	x7, x7, #0x801
100002174: 52963389    	mov	w9, #0xb19c             ; =45468
100002178: 72a84c49    	movk	w9, #0x4262, lsl #16
10000217c: 1e270120    	fmov	s0, w9
100002180: 97fffded    	bl	0x100001934 <_createEmployee>
100002184: f94057e6    	ldr	x6, [sp, #0xa8]
100002188: 910003e9    	mov	x9, sp
10000218c: b0000028    	adrp	x8, 0x100007000 <_strncmp+0x100007000>
100002190: 91228908    	add	x8, x8, #0x8a2
100002194: f9000128    	str	x8, [x9]
100002198: b0000028    	adrp	x8, 0x100007000 <_strncmp+0x100007000>
10000219c: 9122b508    	add	x8, x8, #0x8ad
1000021a0: f9000528    	str	x8, [x9, #0x8]
1000021a4: b0000028    	adrp	x8, 0x100007000 <_strncmp+0x100007000>
1000021a8: 9122e108    	add	x8, x8, #0x8b8
1000021ac: f9003fe8    	str	x8, [sp, #0x78]
1000021b0: f9000928    	str	x8, [x9, #0x10]
1000021b4: b0000028    	adrp	x8, 0x100007000 <_strncmp+0x100007000>
1000021b8: 91230508    	add	x8, x8, #0x8c1
1000021bc: f90043e8    	str	x8, [sp, #0x80]
1000021c0: f9000d28    	str	x8, [x9, #0x18]
1000021c4: 5286ade8    	mov	w8, #0x356f             ; =13679
1000021c8: 72a414e8    	movk	w8, #0x20a7, lsl #16
1000021cc: b9008be8    	str	w8, [sp, #0x88]
1000021d0: b9002128    	str	w8, [x9, #0x20]
1000021d4: 52824ae8    	mov	w8, #0x1257             ; =4695
1000021d8: 72a013a8    	movk	w8, #0x9d, lsl #16
1000021dc: b9008fe8    	str	w8, [sp, #0x8c]
1000021e0: b9002528    	str	w8, [x9, #0x24]
1000021e4: b0000028    	adrp	x8, 0x100007000 <_strncmp+0x100007000>
1000021e8: 91234d08    	add	x8, x8, #0x8d3
1000021ec: f9004be8    	str	x8, [sp, #0x90]
1000021f0: f9001528    	str	x8, [x9, #0x28]
1000021f4: 910603e8    	add	x8, sp, #0x180
1000021f8: f90063e8    	str	x8, [sp, #0xc0]
1000021fc: b0000020    	adrp	x0, 0x100007000 <_strncmp+0x100007000>
100002200: 9120e400    	add	x0, x0, #0x839
100002204: f9004fe0    	str	x0, [sp, #0x98]
100002208: b0000021    	adrp	x1, 0x100007000 <_strncmp+0x100007000>
10000220c: 9120fc21    	add	x1, x1, #0x83f
100002210: b0000022    	adrp	x2, 0x100007000 <_strncmp+0x100007000>
100002214: 91211442    	add	x2, x2, #0x845
100002218: b0000023    	adrp	x3, 0x100007000 <_strncmp+0x100007000>
10000221c: 91213c63    	add	x3, x3, #0x84f
100002220: f90053e3    	str	x3, [sp, #0xa0]
100002224: b0000024    	adrp	x4, 0x100007000 <_strncmp+0x100007000>
100002228: 91217084    	add	x4, x4, #0x85c
10000222c: b0000025    	adrp	x5, 0x100007000 <_strncmp+0x100007000>
100002230: 9121f0a5    	add	x5, x5, #0x87c
100002234: b0000027    	adrp	x7, 0x100007000 <_strncmp+0x100007000>
100002238: 912258e7    	add	x7, x7, #0x896
10000223c: 52a84969    	mov	w9, #0x424b0000         ; =1112211456
100002240: 1e270120    	fmov	s0, w9
100002244: bd00b7e0    	str	s0, [sp, #0xb4]
100002248: 97fffdbb    	bl	0x100001934 <_createEmployee>
10000224c: f9403fed    	ldr	x13, [sp, #0x78]
100002250: f94043ec    	ldr	x12, [sp, #0x80]
100002254: b9408beb    	ldr	w11, [sp, #0x88]
100002258: b9408fea    	ldr	w10, [sp, #0x8c]
10000225c: f9404be8    	ldr	x8, [sp, #0x90]
100002260: f9404fe0    	ldr	x0, [sp, #0x98]
100002264: f94053e3    	ldr	x3, [sp, #0xa0]
100002268: f94057e6    	ldr	x6, [sp, #0xa8]
10000226c: bd40b7e0    	ldr	s0, [sp, #0xb4]
100002270: 910003e9    	mov	x9, sp
100002274: b000002e    	adrp	x14, 0x100007000 <_strncmp+0x100007000>
100002278: 9124bdce    	add	x14, x14, #0x92f
10000227c: f900012e    	str	x14, [x9]
100002280: b000002e    	adrp	x14, 0x100007000 <_strncmp+0x100007000>
100002284: 9124e9ce    	add	x14, x14, #0x93a
100002288: f900052e    	str	x14, [x9, #0x8]
10000228c: f900092d    	str	x13, [x9, #0x10]
100002290: f9000d2c    	str	x12, [x9, #0x18]
100002294: b900212b    	str	w11, [x9, #0x20]
100002298: b900252a    	str	w10, [x9, #0x24]
10000229c: f9001528    	str	x8, [x9, #0x28]
1000022a0: 910423e8    	add	x8, sp, #0x108
1000022a4: f90067e8    	str	x8, [sp, #0xc8]
1000022a8: b0000021    	adrp	x1, 0x100007000 <_strncmp+0x100007000>
1000022ac: 91237c21    	add	x1, x1, #0x8df
1000022b0: b0000022    	adrp	x2, 0x100007000 <_strncmp+0x100007000>
1000022b4: 91239442    	add	x2, x2, #0x8e5
1000022b8: b0000024    	adrp	x4, 0x100007000 <_strncmp+0x100007000>
1000022bc: 9123ac84    	add	x4, x4, #0x8eb
1000022c0: b0000025    	adrp	x5, 0x100007000 <_strncmp+0x100007000>
1000022c4: 91241ca5    	add	x5, x5, #0x907
1000022c8: b0000027    	adrp	x7, 0x100007000 <_strncmp+0x100007000>
1000022cc: 912488e7    	add	x7, x7, #0x922
1000022d0: 97fffd99    	bl	0x100001934 <_createEmployee>
1000022d4: f9405fe1    	ldr	x1, [sp, #0xb8]
1000022d8: f85c03a0    	ldur	x0, [x29, #-0x40]
1000022dc: d2800f02    	mov	x2, #0x78               ; =120
1000022e0: f9006be2    	str	x2, [sp, #0xd0]
1000022e4: 9400134a    	bl	0x10000700c <_strncmp+0x10000700c>
1000022e8: f94063e1    	ldr	x1, [sp, #0xc0]
1000022ec: f9406be2    	ldr	x2, [sp, #0xd0]
1000022f0: f85c03a8    	ldur	x8, [x29, #-0x40]
1000022f4: 9101e100    	add	x0, x8, #0x78
1000022f8: 94001345    	bl	0x10000700c <_strncmp+0x10000700c>
1000022fc: f94067e1    	ldr	x1, [sp, #0xc8]
100002300: f9406be2    	ldr	x2, [sp, #0xd0]
100002304: f85c03a8    	ldur	x8, [x29, #-0x40]
100002308: 9103c100    	add	x0, x8, #0xf0
10000230c: 94001340    	bl	0x10000700c <_strncmp+0x10000700c>
100002310: b90107ff    	str	wzr, [sp, #0x104]
100002314: 14000001    	b	0x100002318 <_main+0x2f0>
100002318: b94107e8    	ldr	w8, [sp, #0x104]
10000231c: 71000d08    	subs	w8, w8, #0x3
100002320: 1a9fb7e8    	cset	w8, ge
100002324: 37000728    	tbnz	w8, #0x0, 0x100002408 <_main+0x3e0>
100002328: 14000001    	b	0x10000232c <_main+0x304>
10000232c: f85c03a8    	ldur	x8, [x29, #-0x40]
100002330: b98107e9    	ldrsw	x9, [sp, #0x104]
100002334: d2800f0b    	mov	x11, #0x78              ; =120
100002338: f9003beb    	str	x11, [sp, #0x70]
10000233c: 9b0b7d29    	mul	x9, x9, x11
100002340: f869690a    	ldr	x10, [x8, x9]
100002344: f85c03a8    	ldur	x8, [x29, #-0x40]
100002348: b98107e9    	ldrsw	x9, [sp, #0x104]
10000234c: 9b0b7d29    	mul	x9, x9, x11
100002350: 8b090108    	add	x8, x8, x9
100002354: f9401908    	ldr	x8, [x8, #0x30]
100002358: 910003e9    	mov	x9, sp
10000235c: f900012a    	str	x10, [x9]
100002360: f9000528    	str	x8, [x9, #0x8]
100002364: b0000020    	adrp	x0, 0x100007000 <_strncmp+0x100007000>
100002368: 91251400    	add	x0, x0, #0x945
10000236c: 94001334    	bl	0x10000703c <_strncmp+0x10000703c>
100002370: f9403bea    	ldr	x10, [sp, #0x70]
100002374: f85c03a8    	ldur	x8, [x29, #-0x40]
100002378: b98107e9    	ldrsw	x9, [sp, #0x104]
10000237c: 9b0a7d29    	mul	x9, x9, x10
100002380: 8b090100    	add	x0, x8, x9
100002384: 97fffef4    	bl	0x100001f54 <_createUserName>
100002388: f9403beb    	ldr	x11, [sp, #0x70]
10000238c: f85c03a8    	ldur	x8, [x29, #-0x40]
100002390: b98107e9    	ldrsw	x9, [sp, #0x104]
100002394: 9b0b7d29    	mul	x9, x9, x11
100002398: f869690a    	ldr	x10, [x8, x9]
10000239c: f85c03a8    	ldur	x8, [x29, #-0x40]
1000023a0: b98107e9    	ldrsw	x9, [sp, #0x104]
1000023a4: 9b0b7d29    	mul	x9, x9, x11
1000023a8: 8b090108    	add	x8, x8, x9
1000023ac: f9401908    	ldr	x8, [x8, #0x30]
1000023b0: 910003e9    	mov	x9, sp
1000023b4: f900012a    	str	x10, [x9]
1000023b8: f9000528    	str	x8, [x9, #0x8]
1000023bc: b0000020    	adrp	x0, 0x100007000 <_strncmp+0x100007000>
1000023c0: 91256400    	add	x0, x0, #0x959
1000023c4: 9400131e    	bl	0x10000703c <_strncmp+0x10000703c>
1000023c8: f9403bea    	ldr	x10, [sp, #0x70]
1000023cc: f85c03a8    	ldur	x8, [x29, #-0x40]
1000023d0: b98107e9    	ldrsw	x9, [sp, #0x104]
1000023d4: 9b0a7d29    	mul	x9, x9, x10
1000023d8: 8b090100    	add	x0, x8, x9
1000023dc: f85c03a8    	ldur	x8, [x29, #-0x40]
1000023e0: b98107e9    	ldrsw	x9, [sp, #0x104]
1000023e4: 9b0a7d29    	mul	x9, x9, x10
1000023e8: 8b090101    	add	x1, x8, x9
1000023ec: d2800f02    	mov	x2, #0x78               ; =120
1000023f0: 94001307    	bl	0x10000700c <_strncmp+0x10000700c>
1000023f4: 14000001    	b	0x1000023f8 <_main+0x3d0>
1000023f8: b94107e8    	ldr	w8, [sp, #0x104]
1000023fc: 11000508    	add	w8, w8, #0x1
100002400: b90107e8    	str	w8, [sp, #0x104]
100002404: 17ffffc5    	b	0x100002318 <_main+0x2f0>
100002408: d2800108    	mov	x8, #0x8                ; =8
10000240c: f9007fe8    	str	x8, [sp, #0xf8]
100002410: d2801900    	mov	x0, #0xc8               ; =200
100002414: d2801781    	mov	x1, #0xbc               ; =188
100002418: 940012e2    	bl	0x100006fa0 <_strncmp+0x100006fa0>
10000241c: f9007be0    	str	x0, [sp, #0xf0]
100002420: f9407be8    	ldr	x8, [sp, #0xf0]
100002424: f1000108    	subs	x8, x8, #0x0
100002428: 1a9f07e8    	cset	w8, ne
10000242c: 37000148    	tbnz	w8, #0x0, 0x100002454 <_main+0x42c>
100002430: 14000001    	b	0x100002434 <_main+0x40c>
100002434: b0000020    	adrp	x0, 0x100007000 <_strncmp+0x100007000>
100002438: 9125c800    	add	x0, x0, #0x972
10000243c: 940012fd    	bl	0x100007030 <_strncmp+0x100007030>
100002440: f85c03a0    	ldur	x0, [x29, #-0x40]
100002444: 940012ec    	bl	0x100006ff4 <_strncmp+0x100006ff4>
100002448: 52800028    	mov	w8, #0x1                ; =1
10000244c: b81ec3a8    	stur	w8, [x29, #-0x14]
100002450: 140000ba    	b	0x100002738 <_main+0x710>
100002454: f85c03a0    	ldur	x0, [x29, #-0x40]
100002458: 52800141    	mov	w1, #0xa                ; =10
10000245c: 97fffc51    	bl	0x1000015a0 <_displayEmployees>
100002460: f85c03a0    	ldur	x0, [x29, #-0x40]
100002464: 97fffc8a    	bl	0x10000168c <_searchEmployeeByName>
100002468: f85c03a0    	ldur	x0, [x29, #-0x40]
10000246c: 97fffcd9    	bl	0x1000017d0 <_searchEmployeeByUsername>
100002470: b900efff    	str	wzr, [sp, #0xec]
100002474: 14000001    	b	0x100002478 <_main+0x450>
100002478: b940efe8    	ldr	w8, [sp, #0xec]
10000247c: 71000d08    	subs	w8, w8, #0x3
100002480: 1a9fb7e8    	cset	w8, ge
100002484: 37000508    	tbnz	w8, #0x0, 0x100002524 <_main+0x4fc>
100002488: 14000001    	b	0x10000248c <_main+0x464>
10000248c: f9407be8    	ldr	x8, [sp, #0xf0]
100002490: b980efe9    	ldrsw	x9, [sp, #0xec]
100002494: f9407fea    	ldr	x10, [sp, #0xf8]
100002498: 9b0a7d29    	mul	x9, x9, x10
10000249c: 8b090108    	add	x8, x8, x9
1000024a0: f90073e8    	str	x8, [sp, #0xe0]
1000024a4: f94073e0    	ldr	x0, [sp, #0xe0]
1000024a8: f85c03a8    	ldur	x8, [x29, #-0x40]
1000024ac: b980efe9    	ldrsw	x9, [sp, #0xec]
1000024b0: d2800f0a    	mov	x10, #0x78              ; =120
1000024b4: f90037ea    	str	x10, [sp, #0x68]
1000024b8: 9b0a7d29    	mul	x9, x9, x10
1000024bc: 8b090108    	add	x8, x8, x9
1000024c0: f9401d01    	ldr	x1, [x8, #0x38]
1000024c4: d2801782    	mov	x2, #0xbc               ; =188
1000024c8: 97fffe19    	bl	0x100001d2c <_hashPasscode>
1000024cc: f94037eb    	ldr	x11, [sp, #0x68]
1000024d0: b900dfe0    	str	w0, [sp, #0xdc]
1000024d4: f85c03a8    	ldur	x8, [x29, #-0x40]
1000024d8: b980efe9    	ldrsw	x9, [sp, #0xec]
1000024dc: 9b0b7d29    	mul	x9, x9, x11
1000024e0: f869690a    	ldr	x10, [x8, x9]
1000024e4: f85c03a8    	ldur	x8, [x29, #-0x40]
1000024e8: b980efe9    	ldrsw	x9, [sp, #0xec]
1000024ec: 9b0b7d29    	mul	x9, x9, x11
1000024f0: 8b090108    	add	x8, x8, x9
1000024f4: f9401d08    	ldr	x8, [x8, #0x38]
1000024f8: 910003e9    	mov	x9, sp
1000024fc: f900012a    	str	x10, [x9]
100002500: f9000528    	str	x8, [x9, #0x8]
100002504: b0000020    	adrp	x0, 0x100007000 <_strncmp+0x100007000>
100002508: 91266400    	add	x0, x0, #0x999
10000250c: 940012cc    	bl	0x10000703c <_strncmp+0x10000703c>
100002510: 14000001    	b	0x100002514 <_main+0x4ec>
100002514: b940efe8    	ldr	w8, [sp, #0xec]
100002518: 11000508    	add	w8, w8, #0x1
10000251c: b900efe8    	str	w8, [sp, #0xec]
100002520: 17ffffd6    	b	0x100002478 <_main+0x450>
100002524: f85c03a0    	ldur	x0, [x29, #-0x40]
100002528: 52800141    	mov	w1, #0xa                ; =10
10000252c: 97fffc1d    	bl	0x1000015a0 <_displayEmployees>
100002530: b0000020    	adrp	x0, 0x100007000 <_strncmp+0x100007000>
100002534: 91145800    	add	x0, x0, #0x516
100002538: 940012c1    	bl	0x10000703c <_strncmp+0x10000703c>
10000253c: f85c83a0    	ldur	x0, [x29, #-0x38]
100002540: b0000021    	adrp	x1, 0x100007000 <_strncmp+0x100007000>
100002544: 9126c421    	add	x1, x1, #0x9b1
100002548: 940012a8    	bl	0x100006fe8 <_strncmp+0x100006fe8>
10000254c: f85c83a0    	ldur	x0, [x29, #-0x38]
100002550: b0000021    	adrp	x1, 0x100007000 <_strncmp+0x100007000>
100002554: 9126d421    	add	x1, x1, #0x9b5
100002558: 940012a4    	bl	0x100006fe8 <_strncmp+0x100006fe8>
10000255c: b900dbff    	str	wzr, [sp, #0xd8]
100002560: 14000001    	b	0x100002564 <_main+0x53c>
100002564: b940dbe8    	ldr	w8, [sp, #0xd8]
100002568: 71000d08    	subs	w8, w8, #0x3
10000256c: 1a9fb7e8    	cset	w8, ge
100002570: 370009e8    	tbnz	w8, #0x0, 0x1000026ac <_main+0x684>
100002574: 14000001    	b	0x100002578 <_main+0x550>
100002578: f85c83a0    	ldur	x0, [x29, #-0x38]
10000257c: f85c03a8    	ldur	x8, [x29, #-0x40]
100002580: b980dbe9    	ldrsw	x9, [sp, #0xd8]
100002584: d2800f0a    	mov	x10, #0x78              ; =120
100002588: f9002fea    	str	x10, [sp, #0x58]
10000258c: 9b0a7d29    	mul	x9, x9, x10
100002590: f8696901    	ldr	x1, [x8, x9]
100002594: f85c03a8    	ldur	x8, [x29, #-0x40]
100002598: b980dbe9    	ldrsw	x9, [sp, #0xd8]
10000259c: 9b0a7d29    	mul	x9, x9, x10
1000025a0: 8b090108    	add	x8, x8, x9
1000025a4: f9400511    	ldr	x17, [x8, #0x8]
1000025a8: f85c03a8    	ldur	x8, [x29, #-0x40]
1000025ac: b980dbe9    	ldrsw	x9, [sp, #0xd8]
1000025b0: 9b0a7d29    	mul	x9, x9, x10
1000025b4: 8b090108    	add	x8, x8, x9
1000025b8: f9400910    	ldr	x16, [x8, #0x10]
1000025bc: f85c03a8    	ldur	x8, [x29, #-0x40]
1000025c0: b980dbe9    	ldrsw	x9, [sp, #0xd8]
1000025c4: 9b0a7d29    	mul	x9, x9, x10
1000025c8: 8b090108    	add	x8, x8, x9
1000025cc: f940190f    	ldr	x15, [x8, #0x30]
1000025d0: f85c03a8    	ldur	x8, [x29, #-0x40]
1000025d4: b980dbe9    	ldrsw	x9, [sp, #0xd8]
1000025d8: 9b0a7d29    	mul	x9, x9, x10
1000025dc: 8b090108    	add	x8, x8, x9
1000025e0: f940210e    	ldr	x14, [x8, #0x40]
1000025e4: f85c03a8    	ldur	x8, [x29, #-0x40]
1000025e8: b980dbe9    	ldrsw	x9, [sp, #0xd8]
1000025ec: 9b0a7d29    	mul	x9, x9, x10
1000025f0: 8b090108    	add	x8, x8, x9
1000025f4: f940150d    	ldr	x13, [x8, #0x28]
1000025f8: f85c03a8    	ldur	x8, [x29, #-0x40]
1000025fc: b980dbe9    	ldrsw	x9, [sp, #0xd8]
100002600: 9b0a7d29    	mul	x9, x9, x10
100002604: 8b090108    	add	x8, x8, x9
100002608: f940290c    	ldr	x12, [x8, #0x50]
10000260c: f85c03a8    	ldur	x8, [x29, #-0x40]
100002610: b980dbe9    	ldrsw	x9, [sp, #0xd8]
100002614: 9b0a7d29    	mul	x9, x9, x10
100002618: 8b090108    	add	x8, x8, x9
10000261c: f9402d0b    	ldr	x11, [x8, #0x58]
100002620: f85c03a8    	ldur	x8, [x29, #-0x40]
100002624: b980dbe9    	ldrsw	x9, [sp, #0xd8]
100002628: 9b0a7d29    	mul	x9, x9, x10
10000262c: 8b090108    	add	x8, x8, x9
100002630: f940250a    	ldr	x10, [x8, #0x48]
100002634: b940dbe8    	ldr	w8, [sp, #0xd8]
100002638: 71000908    	subs	w8, w8, #0x2
10000263c: 1a9fa7e2    	cset	w2, lt
100002640: b0000029    	adrp	x9, 0x100007000 <_strncmp+0x100007000>
100002644: 9129cd29    	add	x9, x9, #0xa73
100002648: b0000028    	adrp	x8, 0x100007000 <_strncmp+0x100007000>
10000264c: 9129c508    	add	x8, x8, #0xa71
100002650: 12000042    	and	w2, w2, #0x1
100002654: 72000042    	ands	w2, w2, #0x1
100002658: 9a891108    	csel	x8, x8, x9, ne
10000265c: 910003e9    	mov	x9, sp
100002660: f90033e9    	str	x9, [sp, #0x60]
100002664: f9000121    	str	x1, [x9]
100002668: f9000531    	str	x17, [x9, #0x8]
10000266c: f9000930    	str	x16, [x9, #0x10]
100002670: f9000d2f    	str	x15, [x9, #0x18]
100002674: f900112e    	str	x14, [x9, #0x20]
100002678: f900152d    	str	x13, [x9, #0x28]
10000267c: f900192c    	str	x12, [x9, #0x30]
100002680: f9001d2b    	str	x11, [x9, #0x38]
100002684: f900212a    	str	x10, [x9, #0x40]
100002688: f9002528    	str	x8, [x9, #0x48]
10000268c: b0000021    	adrp	x1, 0x100007000 <_strncmp+0x100007000>
100002690: 91271c21    	add	x1, x1, #0x9c7
100002694: 94001255    	bl	0x100006fe8 <_strncmp+0x100006fe8>
100002698: 14000001    	b	0x10000269c <_main+0x674>
10000269c: b940dbe8    	ldr	w8, [sp, #0xd8]
1000026a0: 11000508    	add	w8, w8, #0x1
1000026a4: b900dbe8    	str	w8, [sp, #0xd8]
1000026a8: 17ffffaf    	b	0x100002564 <_main+0x53c>
1000026ac: f85c83a0    	ldur	x0, [x29, #-0x38]
1000026b0: b0000021    	adrp	x1, 0x100007000 <_strncmp+0x100007000>
1000026b4: 9129d021    	add	x1, x1, #0xa74
1000026b8: 9400124c    	bl	0x100006fe8 <_strncmp+0x100006fe8>
1000026bc: f85c83a0    	ldur	x0, [x29, #-0x38]
1000026c0: b0000021    	adrp	x1, 0x100007000 <_strncmp+0x100007000>
1000026c4: 9129e421    	add	x1, x1, #0xa79
1000026c8: 94001248    	bl	0x100006fe8 <_strncmp+0x100006fe8>
1000026cc: f85c83a0    	ldur	x0, [x29, #-0x38]
1000026d0: 94001240    	bl	0x100006fd0 <_strncmp+0x100006fd0>
1000026d4: b0000020    	adrp	x0, 0x100007000 <_strncmp+0x100007000>
1000026d8: 9129f000    	add	x0, x0, #0xa7c
1000026dc: 94001258    	bl	0x10000703c <_strncmp+0x10000703c>
1000026e0: f85c03a0    	ldur	x0, [x29, #-0x40]
1000026e4: 52801901    	mov	w1, #0xc8               ; =200
1000026e8: 97fffd66    	bl	0x100001c80 <_freeEmployees>
1000026ec: f9407be0    	ldr	x0, [sp, #0xf0]
1000026f0: 94001241    	bl	0x100006ff4 <_strncmp+0x100006ff4>
1000026f4: 9400122e    	bl	0x100006fac <_strncmp+0x100006fac>
1000026f8: f81d83a0    	stur	x0, [x29, #-0x28]
1000026fc: f85d83a8    	ldur	x8, [x29, #-0x28]
100002700: f85e03a9    	ldur	x9, [x29, #-0x20]
100002704: eb090108    	subs	x8, x8, x9
100002708: 9e630100    	ucvtf	d0, x8
10000270c: b0000028    	adrp	x8, 0x100007000 <_strncmp+0x100007000>
100002710: fd406101    	ldr	d1, [x8, #0xc0]
100002714: 1e611800    	fdiv	d0, d0, d1
100002718: fc1d03a0    	stur	d0, [x29, #-0x30]
10000271c: fc5d03a0    	ldur	d0, [x29, #-0x30]
100002720: 910003e8    	mov	x8, sp
100002724: fd000100    	str	d0, [x8]
100002728: b0000020    	adrp	x0, 0x100007000 <_strncmp+0x100007000>
10000272c: 912a9800    	add	x0, x0, #0xaa6
100002730: 94001243    	bl	0x10000703c <_strncmp+0x10000703c>
100002734: 14000001    	b	0x100002738 <_main+0x710>
100002738: b85ec3a0    	ldur	w0, [x29, #-0x14]
10000273c: 910a83ff    	add	sp, sp, #0x2a0
100002740: a9417bfd    	ldp	x29, x30, [sp, #0x10]
100002744: a8c26ffc    	ldp	x28, x27, [sp], #0x20
100002748: d65f03c0    	ret

000000010000274c <_argon2_type2string>:
10000274c: b0000028    	adrp	x8, 0x100007000 <_strncmp+0x100007000>
100002750: 912b8908    	add	x8, x8, #0xae2
100002754: b0000029    	adrp	x9, 0x100007000 <_strncmp+0x100007000>
100002758: 912bad29    	add	x9, x9, #0xaeb
10000275c: 7100003f    	cmp	w1, #0x0
100002760: 9a880128    	csel	x8, x9, x8, eq
100002764: b0000029    	adrp	x9, 0x100007000 <_strncmp+0x100007000>
100002768: 912b4929    	add	x9, x9, #0xad2
10000276c: b000002a    	adrp	x10, 0x100007000 <_strncmp+0x100007000>
100002770: 912b694a    	add	x10, x10, #0xada
100002774: b000002b    	adrp	x11, 0x100007000 <_strncmp+0x100007000>
100002778: 912b096b    	add	x11, x11, #0xac2
10000277c: 9a890149    	csel	x9, x10, x9, eq
100002780: b000002a    	adrp	x10, 0x100007000 <_strncmp+0x100007000>
100002784: 912b294a    	add	x10, x10, #0xaca
100002788: 7100003f    	cmp	w1, #0x0
10000278c: 9a8b014a    	csel	x10, x10, x11, eq
100002790: 7100001f    	cmp	w0, #0x0
100002794: 9a8a13ea    	csel	x10, xzr, x10, ne
100002798: 7100041f    	cmp	w0, #0x1
10000279c: 9a8a0129    	csel	x9, x9, x10, eq
1000027a0: 7100081f    	cmp	w0, #0x2
1000027a4: 9a890100    	csel	x0, x8, x9, eq
1000027a8: d65f03c0    	ret

00000001000027ac <_argon2_ctx>:
1000027ac: d10183ff    	sub	sp, sp, #0x60
1000027b0: a9044ff4    	stp	x20, x19, [sp, #0x40]
1000027b4: a9057bfd    	stp	x29, x30, [sp, #0x50]
1000027b8: 910143fd    	add	x29, sp, #0x50
1000027bc: aa0103f4    	mov	x20, x1
1000027c0: aa0003f3    	mov	x19, x0
1000027c4: 940006be    	bl	0x1000042bc <_validate_inputs>
1000027c8: 340000a0    	cbz	w0, 0x1000027dc <_argon2_ctx+0x30>
1000027cc: a9457bfd    	ldp	x29, x30, [sp, #0x50]
1000027d0: a9444ff4    	ldp	x20, x19, [sp, #0x40]
1000027d4: 910183ff    	add	sp, sp, #0x60
1000027d8: d65f03c0    	ret
1000027dc: 71000a9f    	cmp	w20, #0x2
1000027e0: 540000c9    	b.ls	0x1000027f8 <_argon2_ctx+0x4c>
1000027e4: 12800320    	mov	w0, #-0x1a              ; =-26
1000027e8: a9457bfd    	ldp	x29, x30, [sp, #0x50]
1000027ec: a9444ff4    	ldp	x20, x19, [sp, #0x40]
1000027f0: 910183ff    	add	sp, sp, #0x60
1000027f4: d65f03c0    	ret
1000027f8: 294aa668    	ldp	w8, w9, [x19, #0x54]
1000027fc: 531d710a    	lsl	w10, w8, #3
100002800: 2949ae6c    	ldp	w12, w11, [x19, #0x4c]
100002804: 6b0a017f    	cmp	w11, w10
100002808: 1a8a816a    	csel	w10, w11, w10, hi
10000280c: b9405e6b    	ldr	w11, [x19, #0x5c]
100002810: 290233eb    	stp	w11, w12, [sp, #0x10]
100002814: 531e750b    	lsl	w11, w8, #2
100002818: 1acb094a    	udiv	w10, w10, w11
10000281c: f90007ff    	str	xzr, [sp, #0x8]
100002820: 1b0b7d4b    	mul	w11, w10, w11
100002824: 29032beb    	stp	w11, w10, [sp, #0x18]
100002828: 531e754a    	lsl	w10, w10, #2
10000282c: 290423ea    	stp	w10, w8, [sp, #0x20]
100002830: 290553e9    	stp	w9, w20, [sp, #0x28]
100002834: 6b08013f    	cmp	w9, w8
100002838: 54000049    	b.ls	0x100002840 <_argon2_ctx+0x94>
10000283c: b9002be8    	str	w8, [sp, #0x28]
100002840: 910023e0    	add	x0, sp, #0x8
100002844: aa1303e1    	mov	x1, x19
100002848: 94000840    	bl	0x100004948 <_initialize>
10000284c: 35fffc00    	cbnz	w0, 0x1000027cc <_argon2_ctx+0x20>
100002850: 910023e0    	add	x0, sp, #0x8
100002854: 9400056b    	bl	0x100003e00 <_fill_memory_blocks>
100002858: 35fffba0    	cbnz	w0, 0x1000027cc <_argon2_ctx+0x20>
10000285c: 910023e1    	add	x1, sp, #0x8
100002860: aa1303e0    	mov	x0, x19
100002864: 9400041f    	bl	0x1000038e0 <_finalize>
100002868: 52800000    	mov	w0, #0x0                ; =0
10000286c: a9457bfd    	ldp	x29, x30, [sp, #0x50]
100002870: a9444ff4    	ldp	x20, x19, [sp, #0x40]
100002874: 910183ff    	add	sp, sp, #0x60
100002878: d65f03c0    	ret

000000010000287c <_argon2_hash>:
10000287c: d10383ff    	sub	sp, sp, #0xe0
100002880: a9086ffc    	stp	x28, x27, [sp, #0x80]
100002884: a90967fa    	stp	x26, x25, [sp, #0x90]
100002888: a90a5ff8    	stp	x24, x23, [sp, #0xa0]
10000288c: a90b57f6    	stp	x22, x21, [sp, #0xb0]
100002890: a90c4ff4    	stp	x20, x19, [sp, #0xc0]
100002894: a90d7bfd    	stp	x29, x30, [sp, #0xd0]
100002898: 910343fd    	add	x29, sp, #0xd0
10000289c: d360fc88    	lsr	x8, x4, #32
1000028a0: b4000068    	cbz	x8, 0x1000028ac <_argon2_hash+0x30>
1000028a4: 12800097    	mov	w23, #-0x5              ; =-5
1000028a8: 14000052    	b	0x1000029f0 <_argon2_hash+0x174>
1000028ac: aa0603fa    	mov	x26, x6
1000028b0: d360fcc8    	lsr	x8, x6, #32
1000028b4: b4000068    	cbz	x8, 0x1000028c0 <_argon2_hash+0x44>
1000028b8: 128000d7    	mov	w23, #-0x7              ; =-7
1000028bc: 1400004d    	b	0x1000029f0 <_argon2_hash+0x174>
1000028c0: f9400bb4    	ldr	x20, [x29, #0x10]
1000028c4: d360fe88    	lsr	x8, x20, #32
1000028c8: b4000068    	cbz	x8, 0x1000028d4 <_argon2_hash+0x58>
1000028cc: 12800057    	mov	w23, #-0x3              ; =-3
1000028d0: 14000048    	b	0x1000029f0 <_argon2_hash+0x174>
1000028d4: f100129f    	cmp	x20, #0x4
1000028d8: 54000062    	b.hs	0x1000028e4 <_argon2_hash+0x68>
1000028dc: 12800037    	mov	w23, #-0x2              ; =-2
1000028e0: 14000044    	b	0x1000029f0 <_argon2_hash+0x174>
1000028e4: aa0703f5    	mov	x21, x7
1000028e8: aa0503fb    	mov	x27, x5
1000028ec: aa0403fc    	mov	x28, x4
1000028f0: aa0303f6    	mov	x22, x3
1000028f4: aa0203f7    	mov	x23, x2
1000028f8: aa0103f8    	mov	x24, x1
1000028fc: aa0003f9    	mov	x25, x0
100002900: aa1403e0    	mov	x0, x20
100002904: 940011bf    	bl	0x100007000 <_strncmp+0x100007000>
100002908: b4000360    	cbz	x0, 0x100002974 <_argon2_hash+0xf8>
10000290c: aa0003f3    	mov	x19, x0
100002910: 294523a9    	ldp	w9, w8, [x29, #0x28]
100002914: f90007e0    	str	x0, [sp, #0x8]
100002918: b90013f4    	str	w20, [sp, #0x10]
10000291c: f9000ff6    	str	x22, [sp, #0x18]
100002920: aa0903f6    	mov	x22, x9
100002924: b90023fc    	str	w28, [sp, #0x20]
100002928: f90017fb    	str	x27, [sp, #0x28]
10000292c: b90033fa    	str	w26, [sp, #0x30]
100002930: f9001fff    	str	xzr, [sp, #0x38]
100002934: b90043ff    	str	wzr, [sp, #0x40]
100002938: f90027ff    	str	xzr, [sp, #0x48]
10000293c: 290a67ff    	stp	wzr, w25, [sp, #0x50]
100002940: 290b5ff8    	stp	w24, w23, [sp, #0x58]
100002944: a906ffff    	stp	xzr, xzr, [sp, #0x68]
100002948: b9007bff    	str	wzr, [sp, #0x78]
10000294c: 290c23f7    	stp	w23, w8, [sp, #0x60]
100002950: 910023e0    	add	x0, sp, #0x8
100002954: aa0903e1    	mov	x1, x9
100002958: 97ffff95    	bl	0x1000027ac <_argon2_ctx>
10000295c: 34000100    	cbz	w0, 0x10000297c <_argon2_hash+0x100>
100002960: aa0003f7    	mov	x23, x0
100002964: aa1303e0    	mov	x0, x19
100002968: aa1403e1    	mov	x1, x20
10000296c: 940003c8    	bl	0x10000388c <_clear_internal_memory>
100002970: 1400001e    	b	0x1000029e8 <_argon2_hash+0x16c>
100002974: 128002b7    	mov	w23, #-0x16             ; =-22
100002978: 1400001e    	b	0x1000029f0 <_argon2_hash+0x174>
10000297c: f9400fb7    	ldr	x23, [x29, #0x18]
100002980: b40000b5    	cbz	x21, 0x100002994 <_argon2_hash+0x118>
100002984: aa1503e0    	mov	x0, x21
100002988: aa1303e1    	mov	x1, x19
10000298c: aa1403e2    	mov	x2, x20
100002990: 9400119f    	bl	0x10000700c <_strncmp+0x10000700c>
100002994: b4000237    	cbz	x23, 0x1000029d8 <_argon2_hash+0x15c>
100002998: f94013b5    	ldr	x21, [x29, #0x20]
10000299c: b40001f5    	cbz	x21, 0x1000029d8 <_argon2_hash+0x15c>
1000029a0: 910023e2    	add	x2, sp, #0x8
1000029a4: aa1703e0    	mov	x0, x23
1000029a8: aa1503e1    	mov	x1, x21
1000029ac: aa1603e3    	mov	x3, x22
1000029b0: 94000cec    	bl	0x100005d60 <_encode_string>
1000029b4: 34000120    	cbz	w0, 0x1000029d8 <_argon2_hash+0x15c>
1000029b8: aa1303e0    	mov	x0, x19
1000029bc: aa1403e1    	mov	x1, x20
1000029c0: 940003b3    	bl	0x10000388c <_clear_internal_memory>
1000029c4: aa1703e0    	mov	x0, x23
1000029c8: aa1503e1    	mov	x1, x21
1000029cc: 940003b0    	bl	0x10000388c <_clear_internal_memory>
1000029d0: 128003d7    	mov	w23, #-0x1f             ; =-31
1000029d4: 14000005    	b	0x1000029e8 <_argon2_hash+0x16c>
1000029d8: aa1303e0    	mov	x0, x19
1000029dc: aa1403e1    	mov	x1, x20
1000029e0: 940003ab    	bl	0x10000388c <_clear_internal_memory>
1000029e4: 52800017    	mov	w23, #0x0               ; =0
1000029e8: aa1303e0    	mov	x0, x19
1000029ec: 94001182    	bl	0x100006ff4 <_strncmp+0x100006ff4>
1000029f0: aa1703e0    	mov	x0, x23
1000029f4: a94d7bfd    	ldp	x29, x30, [sp, #0xd0]
1000029f8: a94c4ff4    	ldp	x20, x19, [sp, #0xc0]
1000029fc: a94b57f6    	ldp	x22, x21, [sp, #0xb0]
100002a00: a94a5ff8    	ldp	x24, x23, [sp, #0xa0]
100002a04: a94967fa    	ldp	x26, x25, [sp, #0x90]
100002a08: a9486ffc    	ldp	x28, x27, [sp, #0x80]
100002a0c: 910383ff    	add	sp, sp, #0xe0
100002a10: d65f03c0    	ret

0000000100002a14 <_argon2i_hash_encoded>:
100002a14: d100c3ff    	sub	sp, sp, #0x30
100002a18: a9027bfd    	stp	x29, x30, [sp, #0x20]
100002a1c: 910083fd    	add	x29, sp, #0x20
100002a20: a94127a8    	ldp	x8, x9, [x29, #0x10]
100002a24: d280002a    	mov	x10, #0x1               ; =1
100002a28: f2c0026a    	movk	x10, #0x13, lsl #32
100002a2c: a9012be9    	stp	x9, x10, [sp, #0x10]
100002a30: a90023e7    	stp	x7, x8, [sp]
100002a34: d2800007    	mov	x7, #0x0                ; =0
100002a38: 97ffff91    	bl	0x10000287c <_argon2_hash>
100002a3c: a9427bfd    	ldp	x29, x30, [sp, #0x20]
100002a40: 9100c3ff    	add	sp, sp, #0x30
100002a44: d65f03c0    	ret

0000000100002a48 <_argon2i_hash_raw>:
100002a48: d100c3ff    	sub	sp, sp, #0x30
100002a4c: a9027bfd    	stp	x29, x30, [sp, #0x20]
100002a50: 910083fd    	add	x29, sp, #0x20
100002a54: f9400ba8    	ldr	x8, [x29, #0x10]
100002a58: d2800029    	mov	x9, #0x1                ; =1
100002a5c: f2c00269    	movk	x9, #0x13, lsl #32
100002a60: a90127ff    	stp	xzr, x9, [sp, #0x10]
100002a64: a9007fe8    	stp	x8, xzr, [sp]
100002a68: 97ffff85    	bl	0x10000287c <_argon2_hash>
100002a6c: a9427bfd    	ldp	x29, x30, [sp, #0x20]
100002a70: 9100c3ff    	add	sp, sp, #0x30
100002a74: d65f03c0    	ret

0000000100002a78 <_argon2d_hash_encoded>:
100002a78: d100c3ff    	sub	sp, sp, #0x30
100002a7c: a9027bfd    	stp	x29, x30, [sp, #0x20]
100002a80: 910083fd    	add	x29, sp, #0x20
100002a84: a94127a8    	ldp	x8, x9, [x29, #0x10]
100002a88: d2c0026a    	mov	x10, #0x1300000000      ; =81604378624
100002a8c: a9012be9    	stp	x9, x10, [sp, #0x10]
100002a90: a90023e7    	stp	x7, x8, [sp]
100002a94: d2800007    	mov	x7, #0x0                ; =0
100002a98: 97ffff79    	bl	0x10000287c <_argon2_hash>
100002a9c: a9427bfd    	ldp	x29, x30, [sp, #0x20]
100002aa0: 9100c3ff    	add	sp, sp, #0x30
100002aa4: d65f03c0    	ret

0000000100002aa8 <_argon2d_hash_raw>:
100002aa8: d100c3ff    	sub	sp, sp, #0x30
100002aac: a9027bfd    	stp	x29, x30, [sp, #0x20]
100002ab0: 910083fd    	add	x29, sp, #0x20
100002ab4: f9400ba8    	ldr	x8, [x29, #0x10]
100002ab8: d2c00269    	mov	x9, #0x1300000000       ; =81604378624
100002abc: a90127ff    	stp	xzr, x9, [sp, #0x10]
100002ac0: a9007fe8    	stp	x8, xzr, [sp]
100002ac4: 97ffff6e    	bl	0x10000287c <_argon2_hash>
100002ac8: a9427bfd    	ldp	x29, x30, [sp, #0x20]
100002acc: 9100c3ff    	add	sp, sp, #0x30
100002ad0: d65f03c0    	ret

0000000100002ad4 <_argon2id_hash_encoded>:
100002ad4: d100c3ff    	sub	sp, sp, #0x30
100002ad8: a9027bfd    	stp	x29, x30, [sp, #0x20]
100002adc: 910083fd    	add	x29, sp, #0x20
100002ae0: a94127a8    	ldp	x8, x9, [x29, #0x10]
100002ae4: d280004a    	mov	x10, #0x2               ; =2
100002ae8: f2c0026a    	movk	x10, #0x13, lsl #32
100002aec: a9012be9    	stp	x9, x10, [sp, #0x10]
100002af0: a90023e7    	stp	x7, x8, [sp]
100002af4: d2800007    	mov	x7, #0x0                ; =0
100002af8: 97ffff61    	bl	0x10000287c <_argon2_hash>
100002afc: a9427bfd    	ldp	x29, x30, [sp, #0x20]
100002b00: 9100c3ff    	add	sp, sp, #0x30
100002b04: d65f03c0    	ret

0000000100002b08 <_argon2id_hash_raw>:
100002b08: d100c3ff    	sub	sp, sp, #0x30
100002b0c: a9027bfd    	stp	x29, x30, [sp, #0x20]
100002b10: 910083fd    	add	x29, sp, #0x20
100002b14: f9400ba8    	ldr	x8, [x29, #0x10]
100002b18: d2800049    	mov	x9, #0x2                ; =2
100002b1c: f2c00269    	movk	x9, #0x13, lsl #32
100002b20: a90127ff    	stp	xzr, x9, [sp, #0x10]
100002b24: a9007fe8    	stp	x8, xzr, [sp]
100002b28: 97ffff55    	bl	0x10000287c <_argon2_hash>
100002b2c: a9427bfd    	ldp	x29, x30, [sp, #0x20]
100002b30: 9100c3ff    	add	sp, sp, #0x30
100002b34: d65f03c0    	ret

0000000100002b38 <_argon2_verify>:
100002b38: d10343ff    	sub	sp, sp, #0xd0
100002b3c: a90867fa    	stp	x26, x25, [sp, #0x80]
100002b40: a9095ff8    	stp	x24, x23, [sp, #0x90]
100002b44: a90a57f6    	stp	x22, x21, [sp, #0xa0]
100002b48: a90b4ff4    	stp	x20, x19, [sp, #0xb0]
100002b4c: a90c7bfd    	stp	x29, x30, [sp, #0xc0]
100002b50: 910303fd    	add	x29, sp, #0xc0
100002b54: d360fc48    	lsr	x8, x2, #32
100002b58: b4000068    	cbz	x8, 0x100002b64 <_argon2_verify+0x2c>
100002b5c: 12800095    	mov	w21, #-0x5              ; =-5
100002b60: 14000028    	b	0x100002c00 <_argon2_verify+0xc8>
100002b64: aa0003f6    	mov	x22, x0
100002b68: b4000100    	cbz	x0, 0x100002b88 <_argon2_verify+0x50>
100002b6c: aa0303f4    	mov	x20, x3
100002b70: aa0203f7    	mov	x23, x2
100002b74: aa0103f8    	mov	x24, x1
100002b78: aa1603e0    	mov	x0, x22
100002b7c: 9400114b    	bl	0x1000070a8 <_strncmp+0x1000070a8>
100002b80: d360fc08    	lsr	x8, x0, #32
100002b84: b4000068    	cbz	x8, 0x100002b90 <_argon2_verify+0x58>
100002b88: 128003f5    	mov	w21, #-0x20             ; =-32
100002b8c: 1400001d    	b	0x100002c00 <_argon2_verify+0xc8>
100002b90: aa0003f3    	mov	x19, x0
100002b94: b90033f3    	str	w19, [sp, #0x30]
100002b98: b90013f3    	str	w19, [sp, #0x10]
100002b9c: 94001119    	bl	0x100007000 <_strncmp+0x100007000>
100002ba0: aa0003f9    	mov	x25, x0
100002ba4: f90017e0    	str	x0, [sp, #0x28]
100002ba8: aa1303e0    	mov	x0, x19
100002bac: 94001115    	bl	0x100007000 <_strncmp+0x100007000>
100002bb0: d2800013    	mov	x19, #0x0               ; =0
100002bb4: f90007e0    	str	x0, [sp, #0x8]
100002bb8: 128002b5    	mov	w21, #-0x16             ; =-22
100002bbc: b4000179    	cbz	x25, 0x100002be8 <_argon2_verify+0xb0>
100002bc0: b4000140    	cbz	x0, 0x100002be8 <_argon2_verify+0xb0>
100002bc4: f9000ff8    	str	x24, [sp, #0x18]
100002bc8: b90023f7    	str	w23, [sp, #0x20]
100002bcc: 910023e0    	add	x0, sp, #0x8
100002bd0: aa1603e1    	mov	x1, x22
100002bd4: aa1403e2    	mov	x2, x20
100002bd8: 94000b07    	bl	0x1000057f4 <_decode_string>
100002bdc: 34000220    	cbz	w0, 0x100002c20 <_argon2_verify+0xe8>
100002be0: aa0003f5    	mov	x21, x0
100002be4: d2800013    	mov	x19, #0x0               ; =0
100002be8: f94017e0    	ldr	x0, [sp, #0x28]
100002bec: 94001102    	bl	0x100006ff4 <_strncmp+0x100006ff4>
100002bf0: f94007e0    	ldr	x0, [sp, #0x8]
100002bf4: 94001100    	bl	0x100006ff4 <_strncmp+0x100006ff4>
100002bf8: aa1303e0    	mov	x0, x19
100002bfc: 940010fe    	bl	0x100006ff4 <_strncmp+0x100006ff4>
100002c00: aa1503e0    	mov	x0, x21
100002c04: a94c7bfd    	ldp	x29, x30, [sp, #0xc0]
100002c08: a94b4ff4    	ldp	x20, x19, [sp, #0xb0]
100002c0c: a94a57f6    	ldp	x22, x21, [sp, #0xa0]
100002c10: a9495ff8    	ldp	x24, x23, [sp, #0x90]
100002c14: a94867fa    	ldp	x26, x25, [sp, #0x80]
100002c18: 910343ff    	add	sp, sp, #0xd0
100002c1c: d65f03c0    	ret
100002c20: f94007f3    	ldr	x19, [sp, #0x8]
100002c24: b94013e0    	ldr	w0, [sp, #0x10]
100002c28: 940010f6    	bl	0x100007000 <_strncmp+0x100007000>
100002c2c: f90007e0    	str	x0, [sp, #0x8]
100002c30: b4fffdc0    	cbz	x0, 0x100002be8 <_argon2_verify+0xb0>
100002c34: 910023e0    	add	x0, sp, #0x8
100002c38: aa1403e1    	mov	x1, x20
100002c3c: 97fffedc    	bl	0x1000027ac <_argon2_ctx>
100002c40: 34000060    	cbz	w0, 0x100002c4c <_argon2_verify+0x114>
100002c44: aa0003f5    	mov	x21, x0
100002c48: 17ffffe8    	b	0x100002be8 <_argon2_verify+0xb0>
100002c4c: b94013e8    	ldr	w8, [sp, #0x10]
100002c50: 34000a48    	cbz	w8, 0x100002d98 <_argon2_verify+0x260>
100002c54: f94007e9    	ldr	x9, [sp, #0x8]
100002c58: 7100211f    	cmp	w8, #0x8
100002c5c: 54000082    	b.hs	0x100002c6c <_argon2_verify+0x134>
100002c60: 5280000b    	mov	w11, #0x0               ; =0
100002c64: d280000a    	mov	x10, #0x0               ; =0
100002c68: 1400003e    	b	0x100002d60 <_argon2_verify+0x228>
100002c6c: 7101011f    	cmp	w8, #0x40
100002c70: 54000082    	b.hs	0x100002c80 <_argon2_verify+0x148>
100002c74: 5280000b    	mov	w11, #0x0               ; =0
100002c78: d280000a    	mov	x10, #0x0               ; =0
100002c7c: 14000025    	b	0x100002d10 <_argon2_verify+0x1d8>
100002c80: 927a650a    	and	x10, x8, #0xffffffc0
100002c84: 9100812b    	add	x11, x9, #0x20
100002c88: 9100826c    	add	x12, x19, #0x20
100002c8c: 6f00e400    	movi.2d	v0, #0000000000000000
100002c90: aa0a03ed    	mov	x13, x10
100002c94: 6f00e401    	movi.2d	v1, #0000000000000000
100002c98: 6f00e402    	movi.2d	v2, #0000000000000000
100002c9c: 6f00e403    	movi.2d	v3, #0000000000000000
100002ca0: ad7f1584    	ldp	q4, q5, [x12, #-0x20]
100002ca4: acc21d86    	ldp	q6, q7, [x12], #0x40
100002ca8: ad7f4570    	ldp	q16, q17, [x11, #-0x20]
100002cac: acc24d72    	ldp	q18, q19, [x11], #0x40
100002cb0: 6e241e04    	eor.16b	v4, v16, v4
100002cb4: 6e251e25    	eor.16b	v5, v17, v5
100002cb8: 6e261e46    	eor.16b	v6, v18, v6
100002cbc: 6e271e67    	eor.16b	v7, v19, v7
100002cc0: 4ea01c80    	orr.16b	v0, v4, v0
100002cc4: 4ea11ca1    	orr.16b	v1, v5, v1
100002cc8: 4ea21cc2    	orr.16b	v2, v6, v2
100002ccc: 4ea31ce3    	orr.16b	v3, v7, v3
100002cd0: f10101ad    	subs	x13, x13, #0x40
100002cd4: 54fffe61    	b.ne	0x100002ca0 <_argon2_verify+0x168>
100002cd8: 4ea01c20    	orr.16b	v0, v1, v0
100002cdc: 4ea01c40    	orr.16b	v0, v2, v0
100002ce0: 4ea01c60    	orr.16b	v0, v3, v0
100002ce4: 6e004001    	ext.16b	v1, v0, v0, #0x8
100002ce8: 0ea11c00    	orr.8b	v0, v0, v1
100002cec: 9e66000b    	fmov	x11, d0
100002cf0: aa4b816b    	orr	x11, x11, x11, lsr #32
100002cf4: aa4b416b    	orr	x11, x11, x11, lsr #16
100002cf8: d348fd6c    	lsr	x12, x11, #8
100002cfc: 2a0c016b    	orr	w11, w11, w12
100002d00: eb08015f    	cmp	x10, x8
100002d04: 54000400    	b.eq	0x100002d84 <_argon2_verify+0x24c>
100002d08: f27d091f    	tst	x8, #0x38
100002d0c: 540002a0    	b.eq	0x100002d60 <_argon2_verify+0x228>
100002d10: aa0a03ed    	mov	x13, x10
100002d14: 927d710a    	and	x10, x8, #0xfffffff8
100002d18: 6f00e400    	movi.2d	v0, #0000000000000000
100002d1c: 4e011d60    	mov.b	v0[0], w11
100002d20: 8b0d026b    	add	x11, x19, x13
100002d24: 8b0d012c    	add	x12, x9, x13
100002d28: cb0a01ad    	sub	x13, x13, x10
100002d2c: fc408561    	ldr	d1, [x11], #0x8
100002d30: fc408582    	ldr	d2, [x12], #0x8
100002d34: 2e211c41    	eor.8b	v1, v2, v1
100002d38: 0ea01c20    	orr.8b	v0, v1, v0
100002d3c: b10021ad    	adds	x13, x13, #0x8
100002d40: 54ffff61    	b.ne	0x100002d2c <_argon2_verify+0x1f4>
100002d44: 9e66000b    	fmov	x11, d0
100002d48: aa4b816b    	orr	x11, x11, x11, lsr #32
100002d4c: aa4b416b    	orr	x11, x11, x11, lsr #16
100002d50: d348fd6c    	lsr	x12, x11, #8
100002d54: 2a0c016b    	orr	w11, w11, w12
100002d58: eb08015f    	cmp	x10, x8
100002d5c: 54000140    	b.eq	0x100002d84 <_argon2_verify+0x24c>
100002d60: cb0a0108    	sub	x8, x8, x10
100002d64: 8b0a0129    	add	x9, x9, x10
100002d68: 8b0a026a    	add	x10, x19, x10
100002d6c: 3840154c    	ldrb	w12, [x10], #0x1
100002d70: 3840152d    	ldrb	w13, [x9], #0x1
100002d74: 4a0c01ac    	eor	w12, w13, w12
100002d78: 2a0b018b    	orr	w11, w12, w11
100002d7c: f1000508    	subs	x8, x8, #0x1
100002d80: 54ffff61    	b.ne	0x100002d6c <_argon2_verify+0x234>
100002d84: 12001d68    	and	w8, w11, #0xff
100002d88: 51000508    	sub	w8, w8, #0x1
100002d8c: 37400068    	tbnz	w8, #0x8, 0x100002d98 <_argon2_verify+0x260>
100002d90: 12800455    	mov	w21, #-0x23             ; =-35
100002d94: 17ffff95    	b	0x100002be8 <_argon2_verify+0xb0>
100002d98: 52800015    	mov	w21, #0x0               ; =0
100002d9c: 17ffff93    	b	0x100002be8 <_argon2_verify+0xb0>

0000000100002da0 <_argon2_verify_ctx>:
100002da0: a9be4ff4    	stp	x20, x19, [sp, #-0x20]!
100002da4: a9017bfd    	stp	x29, x30, [sp, #0x10]
100002da8: 910043fd    	add	x29, sp, #0x10
100002dac: aa0103f3    	mov	x19, x1
100002db0: aa0003f4    	mov	x20, x0
100002db4: aa0203e1    	mov	x1, x2
100002db8: 97fffe7d    	bl	0x1000027ac <_argon2_ctx>
100002dbc: 34000080    	cbz	w0, 0x100002dcc <_argon2_verify_ctx+0x2c>
100002dc0: a9417bfd    	ldp	x29, x30, [sp, #0x10]
100002dc4: a8c24ff4    	ldp	x20, x19, [sp], #0x20
100002dc8: d65f03c0    	ret
100002dcc: b9400a88    	ldr	w8, [x20, #0x8]
100002dd0: 34000a88    	cbz	w8, 0x100002f20 <_argon2_verify_ctx+0x180>
100002dd4: f9400289    	ldr	x9, [x20]
100002dd8: 7100211f    	cmp	w8, #0x8
100002ddc: 54000082    	b.hs	0x100002dec <_argon2_verify_ctx+0x4c>
100002de0: 5280000b    	mov	w11, #0x0               ; =0
100002de4: d280000a    	mov	x10, #0x0               ; =0
100002de8: 1400003e    	b	0x100002ee0 <_argon2_verify_ctx+0x140>
100002dec: 7101011f    	cmp	w8, #0x40
100002df0: 54000082    	b.hs	0x100002e00 <_argon2_verify_ctx+0x60>
100002df4: 5280000b    	mov	w11, #0x0               ; =0
100002df8: d280000a    	mov	x10, #0x0               ; =0
100002dfc: 14000025    	b	0x100002e90 <_argon2_verify_ctx+0xf0>
100002e00: 927a650a    	and	x10, x8, #0xffffffc0
100002e04: 9100812b    	add	x11, x9, #0x20
100002e08: 9100826c    	add	x12, x19, #0x20
100002e0c: 6f00e400    	movi.2d	v0, #0000000000000000
100002e10: aa0a03ed    	mov	x13, x10
100002e14: 6f00e401    	movi.2d	v1, #0000000000000000
100002e18: 6f00e402    	movi.2d	v2, #0000000000000000
100002e1c: 6f00e403    	movi.2d	v3, #0000000000000000
100002e20: ad7f1584    	ldp	q4, q5, [x12, #-0x20]
100002e24: acc21d86    	ldp	q6, q7, [x12], #0x40
100002e28: ad7f4570    	ldp	q16, q17, [x11, #-0x20]
100002e2c: acc24d72    	ldp	q18, q19, [x11], #0x40
100002e30: 6e241e04    	eor.16b	v4, v16, v4
100002e34: 6e251e25    	eor.16b	v5, v17, v5
100002e38: 6e261e46    	eor.16b	v6, v18, v6
100002e3c: 6e271e67    	eor.16b	v7, v19, v7
100002e40: 4ea01c80    	orr.16b	v0, v4, v0
100002e44: 4ea11ca1    	orr.16b	v1, v5, v1
100002e48: 4ea21cc2    	orr.16b	v2, v6, v2
100002e4c: 4ea31ce3    	orr.16b	v3, v7, v3
100002e50: f10101ad    	subs	x13, x13, #0x40
100002e54: 54fffe61    	b.ne	0x100002e20 <_argon2_verify_ctx+0x80>
100002e58: 4ea01c20    	orr.16b	v0, v1, v0
100002e5c: 4ea01c40    	orr.16b	v0, v2, v0
100002e60: 4ea01c60    	orr.16b	v0, v3, v0
100002e64: 6e004001    	ext.16b	v1, v0, v0, #0x8
100002e68: 0ea11c00    	orr.8b	v0, v0, v1
100002e6c: 9e66000b    	fmov	x11, d0
100002e70: aa4b816b    	orr	x11, x11, x11, lsr #32
100002e74: aa4b416b    	orr	x11, x11, x11, lsr #16
100002e78: d348fd6c    	lsr	x12, x11, #8
100002e7c: 2a0c016b    	orr	w11, w11, w12
100002e80: eb08015f    	cmp	x10, x8
100002e84: 54000400    	b.eq	0x100002f04 <_argon2_verify_ctx+0x164>
100002e88: f27d091f    	tst	x8, #0x38
100002e8c: 540002a0    	b.eq	0x100002ee0 <_argon2_verify_ctx+0x140>
100002e90: aa0a03ed    	mov	x13, x10
100002e94: 927d710a    	and	x10, x8, #0xfffffff8
100002e98: 6f00e400    	movi.2d	v0, #0000000000000000
100002e9c: 4e011d60    	mov.b	v0[0], w11
100002ea0: 8b0d026b    	add	x11, x19, x13
100002ea4: 8b0d012c    	add	x12, x9, x13
100002ea8: cb0a01ad    	sub	x13, x13, x10
100002eac: fc408561    	ldr	d1, [x11], #0x8
100002eb0: fc408582    	ldr	d2, [x12], #0x8
100002eb4: 2e211c41    	eor.8b	v1, v2, v1
100002eb8: 0ea01c20    	orr.8b	v0, v1, v0
100002ebc: b10021ad    	adds	x13, x13, #0x8
100002ec0: 54ffff61    	b.ne	0x100002eac <_argon2_verify_ctx+0x10c>
100002ec4: 9e66000b    	fmov	x11, d0
100002ec8: aa4b816b    	orr	x11, x11, x11, lsr #32
100002ecc: aa4b416b    	orr	x11, x11, x11, lsr #16
100002ed0: d348fd6c    	lsr	x12, x11, #8
100002ed4: 2a0c016b    	orr	w11, w11, w12
100002ed8: eb08015f    	cmp	x10, x8
100002edc: 54000140    	b.eq	0x100002f04 <_argon2_verify_ctx+0x164>
100002ee0: cb0a0108    	sub	x8, x8, x10
100002ee4: 8b0a0129    	add	x9, x9, x10
100002ee8: 8b0a026a    	add	x10, x19, x10
100002eec: 3840154c    	ldrb	w12, [x10], #0x1
100002ef0: 3840152d    	ldrb	w13, [x9], #0x1
100002ef4: 4a0c01ac    	eor	w12, w13, w12
100002ef8: 2a0b018b    	orr	w11, w12, w11
100002efc: f1000508    	subs	x8, x8, #0x1
100002f00: 54ffff61    	b.ne	0x100002eec <_argon2_verify_ctx+0x14c>
100002f04: 12001d68    	and	w8, w11, #0xff
100002f08: 51000508    	sub	w8, w8, #0x1
100002f0c: 374000a8    	tbnz	w8, #0x8, 0x100002f20 <_argon2_verify_ctx+0x180>
100002f10: 12800440    	mov	w0, #-0x23              ; =-35
100002f14: a9417bfd    	ldp	x29, x30, [sp, #0x10]
100002f18: a8c24ff4    	ldp	x20, x19, [sp], #0x20
100002f1c: d65f03c0    	ret
100002f20: 52800000    	mov	w0, #0x0                ; =0
100002f24: a9417bfd    	ldp	x29, x30, [sp, #0x10]
100002f28: a8c24ff4    	ldp	x20, x19, [sp], #0x20
100002f2c: d65f03c0    	ret

0000000100002f30 <_argon2i_verify>:
100002f30: 52800023    	mov	w3, #0x1                ; =1
100002f34: 17ffff01    	b	0x100002b38 <_argon2_verify>

0000000100002f38 <_argon2d_verify>:
100002f38: 52800003    	mov	w3, #0x0                ; =0
100002f3c: 17fffeff    	b	0x100002b38 <_argon2_verify>

0000000100002f40 <_argon2id_verify>:
100002f40: 52800043    	mov	w3, #0x2                ; =2
100002f44: 17fffefd    	b	0x100002b38 <_argon2_verify>

0000000100002f48 <_argon2d_ctx>:
100002f48: 52800001    	mov	w1, #0x0                ; =0
100002f4c: 17fffe18    	b	0x1000027ac <_argon2_ctx>

0000000100002f50 <_argon2i_ctx>:
100002f50: 52800021    	mov	w1, #0x1                ; =1
100002f54: 17fffe16    	b	0x1000027ac <_argon2_ctx>

0000000100002f58 <_argon2id_ctx>:
100002f58: 52800041    	mov	w1, #0x2                ; =2
100002f5c: 17fffe14    	b	0x1000027ac <_argon2_ctx>

0000000100002f60 <_argon2d_verify_ctx>:
100002f60: a9be4ff4    	stp	x20, x19, [sp, #-0x20]!
100002f64: a9017bfd    	stp	x29, x30, [sp, #0x10]
100002f68: 910043fd    	add	x29, sp, #0x10
100002f6c: aa0103f3    	mov	x19, x1
100002f70: aa0003f4    	mov	x20, x0
100002f74: 52800001    	mov	w1, #0x0                ; =0
100002f78: 97fffe0d    	bl	0x1000027ac <_argon2_ctx>
100002f7c: 34000080    	cbz	w0, 0x100002f8c <_argon2d_verify_ctx+0x2c>
100002f80: a9417bfd    	ldp	x29, x30, [sp, #0x10]
100002f84: a8c24ff4    	ldp	x20, x19, [sp], #0x20
100002f88: d65f03c0    	ret
100002f8c: b9400a88    	ldr	w8, [x20, #0x8]
100002f90: 34000a88    	cbz	w8, 0x1000030e0 <_argon2d_verify_ctx+0x180>
100002f94: f9400289    	ldr	x9, [x20]
100002f98: 7100211f    	cmp	w8, #0x8
100002f9c: 54000082    	b.hs	0x100002fac <_argon2d_verify_ctx+0x4c>
100002fa0: 5280000b    	mov	w11, #0x0               ; =0
100002fa4: d280000a    	mov	x10, #0x0               ; =0
100002fa8: 1400003e    	b	0x1000030a0 <_argon2d_verify_ctx+0x140>
100002fac: 7101011f    	cmp	w8, #0x40
100002fb0: 54000082    	b.hs	0x100002fc0 <_argon2d_verify_ctx+0x60>
100002fb4: 5280000b    	mov	w11, #0x0               ; =0
100002fb8: d280000a    	mov	x10, #0x0               ; =0
100002fbc: 14000025    	b	0x100003050 <_argon2d_verify_ctx+0xf0>
100002fc0: 927a650a    	and	x10, x8, #0xffffffc0
100002fc4: 9100812b    	add	x11, x9, #0x20
100002fc8: 9100826c    	add	x12, x19, #0x20
100002fcc: 6f00e400    	movi.2d	v0, #0000000000000000
100002fd0: aa0a03ed    	mov	x13, x10
100002fd4: 6f00e401    	movi.2d	v1, #0000000000000000
100002fd8: 6f00e402    	movi.2d	v2, #0000000000000000
100002fdc: 6f00e403    	movi.2d	v3, #0000000000000000
100002fe0: ad7f1584    	ldp	q4, q5, [x12, #-0x20]
100002fe4: acc21d86    	ldp	q6, q7, [x12], #0x40
100002fe8: ad7f4570    	ldp	q16, q17, [x11, #-0x20]
100002fec: acc24d72    	ldp	q18, q19, [x11], #0x40
100002ff0: 6e241e04    	eor.16b	v4, v16, v4
100002ff4: 6e251e25    	eor.16b	v5, v17, v5
100002ff8: 6e261e46    	eor.16b	v6, v18, v6
100002ffc: 6e271e67    	eor.16b	v7, v19, v7
100003000: 4ea01c80    	orr.16b	v0, v4, v0
100003004: 4ea11ca1    	orr.16b	v1, v5, v1
100003008: 4ea21cc2    	orr.16b	v2, v6, v2
10000300c: 4ea31ce3    	orr.16b	v3, v7, v3
100003010: f10101ad    	subs	x13, x13, #0x40
100003014: 54fffe61    	b.ne	0x100002fe0 <_argon2d_verify_ctx+0x80>
100003018: 4ea01c20    	orr.16b	v0, v1, v0
10000301c: 4ea01c40    	orr.16b	v0, v2, v0
100003020: 4ea01c60    	orr.16b	v0, v3, v0
100003024: 6e004001    	ext.16b	v1, v0, v0, #0x8
100003028: 0ea11c00    	orr.8b	v0, v0, v1
10000302c: 9e66000b    	fmov	x11, d0
100003030: aa4b816b    	orr	x11, x11, x11, lsr #32
100003034: aa4b416b    	orr	x11, x11, x11, lsr #16
100003038: d348fd6c    	lsr	x12, x11, #8
10000303c: 2a0c016b    	orr	w11, w11, w12
100003040: eb08015f    	cmp	x10, x8
100003044: 54000400    	b.eq	0x1000030c4 <_argon2d_verify_ctx+0x164>
100003048: f27d091f    	tst	x8, #0x38
10000304c: 540002a0    	b.eq	0x1000030a0 <_argon2d_verify_ctx+0x140>
100003050: aa0a03ed    	mov	x13, x10
100003054: 927d710a    	and	x10, x8, #0xfffffff8
100003058: 6f00e400    	movi.2d	v0, #0000000000000000
10000305c: 4e011d60    	mov.b	v0[0], w11
100003060: 8b0d026b    	add	x11, x19, x13
100003064: 8b0d012c    	add	x12, x9, x13
100003068: cb0a01ad    	sub	x13, x13, x10
10000306c: fc408561    	ldr	d1, [x11], #0x8
100003070: fc408582    	ldr	d2, [x12], #0x8
100003074: 2e211c41    	eor.8b	v1, v2, v1
100003078: 0ea01c20    	orr.8b	v0, v1, v0
10000307c: b10021ad    	adds	x13, x13, #0x8
100003080: 54ffff61    	b.ne	0x10000306c <_argon2d_verify_ctx+0x10c>
100003084: 9e66000b    	fmov	x11, d0
100003088: aa4b816b    	orr	x11, x11, x11, lsr #32
10000308c: aa4b416b    	orr	x11, x11, x11, lsr #16
100003090: d348fd6c    	lsr	x12, x11, #8
100003094: 2a0c016b    	orr	w11, w11, w12
100003098: eb08015f    	cmp	x10, x8
10000309c: 54000140    	b.eq	0x1000030c4 <_argon2d_verify_ctx+0x164>
1000030a0: cb0a0108    	sub	x8, x8, x10
1000030a4: 8b0a0129    	add	x9, x9, x10
1000030a8: 8b0a026a    	add	x10, x19, x10
1000030ac: 3840154c    	ldrb	w12, [x10], #0x1
1000030b0: 3840152d    	ldrb	w13, [x9], #0x1
1000030b4: 4a0c01ac    	eor	w12, w13, w12
1000030b8: 2a0b018b    	orr	w11, w12, w11
1000030bc: f1000508    	subs	x8, x8, #0x1
1000030c0: 54ffff61    	b.ne	0x1000030ac <_argon2d_verify_ctx+0x14c>
1000030c4: 12001d68    	and	w8, w11, #0xff
1000030c8: 51000508    	sub	w8, w8, #0x1
1000030cc: 374000a8    	tbnz	w8, #0x8, 0x1000030e0 <_argon2d_verify_ctx+0x180>
1000030d0: 12800440    	mov	w0, #-0x23              ; =-35
1000030d4: a9417bfd    	ldp	x29, x30, [sp, #0x10]
1000030d8: a8c24ff4    	ldp	x20, x19, [sp], #0x20
1000030dc: d65f03c0    	ret
1000030e0: 52800000    	mov	w0, #0x0                ; =0
1000030e4: a9417bfd    	ldp	x29, x30, [sp, #0x10]
1000030e8: a8c24ff4    	ldp	x20, x19, [sp], #0x20
1000030ec: d65f03c0    	ret

00000001000030f0 <_argon2i_verify_ctx>:
1000030f0: a9be4ff4    	stp	x20, x19, [sp, #-0x20]!
1000030f4: a9017bfd    	stp	x29, x30, [sp, #0x10]
1000030f8: 910043fd    	add	x29, sp, #0x10
1000030fc: aa0103f3    	mov	x19, x1
100003100: aa0003f4    	mov	x20, x0
100003104: 52800021    	mov	w1, #0x1                ; =1
100003108: 97fffda9    	bl	0x1000027ac <_argon2_ctx>
10000310c: 34000080    	cbz	w0, 0x10000311c <_argon2i_verify_ctx+0x2c>
100003110: a9417bfd    	ldp	x29, x30, [sp, #0x10]
100003114: a8c24ff4    	ldp	x20, x19, [sp], #0x20
100003118: d65f03c0    	ret
10000311c: b9400a88    	ldr	w8, [x20, #0x8]
100003120: 34000a88    	cbz	w8, 0x100003270 <_argon2i_verify_ctx+0x180>
100003124: f9400289    	ldr	x9, [x20]
100003128: 7100211f    	cmp	w8, #0x8
10000312c: 54000082    	b.hs	0x10000313c <_argon2i_verify_ctx+0x4c>
100003130: 5280000b    	mov	w11, #0x0               ; =0
100003134: d280000a    	mov	x10, #0x0               ; =0
100003138: 1400003e    	b	0x100003230 <_argon2i_verify_ctx+0x140>
10000313c: 7101011f    	cmp	w8, #0x40
100003140: 54000082    	b.hs	0x100003150 <_argon2i_verify_ctx+0x60>
100003144: 5280000b    	mov	w11, #0x0               ; =0
100003148: d280000a    	mov	x10, #0x0               ; =0
10000314c: 14000025    	b	0x1000031e0 <_argon2i_verify_ctx+0xf0>
100003150: 927a650a    	and	x10, x8, #0xffffffc0
100003154: 9100812b    	add	x11, x9, #0x20
100003158: 9100826c    	add	x12, x19, #0x20
10000315c: 6f00e400    	movi.2d	v0, #0000000000000000
100003160: aa0a03ed    	mov	x13, x10
100003164: 6f00e401    	movi.2d	v1, #0000000000000000
100003168: 6f00e402    	movi.2d	v2, #0000000000000000
10000316c: 6f00e403    	movi.2d	v3, #0000000000000000
100003170: ad7f1584    	ldp	q4, q5, [x12, #-0x20]
100003174: acc21d86    	ldp	q6, q7, [x12], #0x40
100003178: ad7f4570    	ldp	q16, q17, [x11, #-0x20]
10000317c: acc24d72    	ldp	q18, q19, [x11], #0x40
100003180: 6e241e04    	eor.16b	v4, v16, v4
100003184: 6e251e25    	eor.16b	v5, v17, v5
100003188: 6e261e46    	eor.16b	v6, v18, v6
10000318c: 6e271e67    	eor.16b	v7, v19, v7
100003190: 4ea01c80    	orr.16b	v0, v4, v0
100003194: 4ea11ca1    	orr.16b	v1, v5, v1
100003198: 4ea21cc2    	orr.16b	v2, v6, v2
10000319c: 4ea31ce3    	orr.16b	v3, v7, v3
1000031a0: f10101ad    	subs	x13, x13, #0x40
1000031a4: 54fffe61    	b.ne	0x100003170 <_argon2i_verify_ctx+0x80>
1000031a8: 4ea01c20    	orr.16b	v0, v1, v0
1000031ac: 4ea01c40    	orr.16b	v0, v2, v0
1000031b0: 4ea01c60    	orr.16b	v0, v3, v0
1000031b4: 6e004001    	ext.16b	v1, v0, v0, #0x8
1000031b8: 0ea11c00    	orr.8b	v0, v0, v1
1000031bc: 9e66000b    	fmov	x11, d0
1000031c0: aa4b816b    	orr	x11, x11, x11, lsr #32
1000031c4: aa4b416b    	orr	x11, x11, x11, lsr #16
1000031c8: d348fd6c    	lsr	x12, x11, #8
1000031cc: 2a0c016b    	orr	w11, w11, w12
1000031d0: eb08015f    	cmp	x10, x8
1000031d4: 54000400    	b.eq	0x100003254 <_argon2i_verify_ctx+0x164>
1000031d8: f27d091f    	tst	x8, #0x38
1000031dc: 540002a0    	b.eq	0x100003230 <_argon2i_verify_ctx+0x140>
1000031e0: aa0a03ed    	mov	x13, x10
1000031e4: 927d710a    	and	x10, x8, #0xfffffff8
1000031e8: 6f00e400    	movi.2d	v0, #0000000000000000
1000031ec: 4e011d60    	mov.b	v0[0], w11
1000031f0: 8b0d026b    	add	x11, x19, x13
1000031f4: 8b0d012c    	add	x12, x9, x13
1000031f8: cb0a01ad    	sub	x13, x13, x10
1000031fc: fc408561    	ldr	d1, [x11], #0x8
100003200: fc408582    	ldr	d2, [x12], #0x8
100003204: 2e211c41    	eor.8b	v1, v2, v1
100003208: 0ea01c20    	orr.8b	v0, v1, v0
10000320c: b10021ad    	adds	x13, x13, #0x8
100003210: 54ffff61    	b.ne	0x1000031fc <_argon2i_verify_ctx+0x10c>
100003214: 9e66000b    	fmov	x11, d0
100003218: aa4b816b    	orr	x11, x11, x11, lsr #32
10000321c: aa4b416b    	orr	x11, x11, x11, lsr #16
100003220: d348fd6c    	lsr	x12, x11, #8
100003224: 2a0c016b    	orr	w11, w11, w12
100003228: eb08015f    	cmp	x10, x8
10000322c: 54000140    	b.eq	0x100003254 <_argon2i_verify_ctx+0x164>
100003230: cb0a0108    	sub	x8, x8, x10
100003234: 8b0a0129    	add	x9, x9, x10
100003238: 8b0a026a    	add	x10, x19, x10
10000323c: 3840154c    	ldrb	w12, [x10], #0x1
100003240: 3840152d    	ldrb	w13, [x9], #0x1
100003244: 4a0c01ac    	eor	w12, w13, w12
100003248: 2a0b018b    	orr	w11, w12, w11
10000324c: f1000508    	subs	x8, x8, #0x1
100003250: 54ffff61    	b.ne	0x10000323c <_argon2i_verify_ctx+0x14c>
100003254: 12001d68    	and	w8, w11, #0xff
100003258: 51000508    	sub	w8, w8, #0x1
10000325c: 374000a8    	tbnz	w8, #0x8, 0x100003270 <_argon2i_verify_ctx+0x180>
100003260: 12800440    	mov	w0, #-0x23              ; =-35
100003264: a9417bfd    	ldp	x29, x30, [sp, #0x10]
100003268: a8c24ff4    	ldp	x20, x19, [sp], #0x20
10000326c: d65f03c0    	ret
100003270: 52800000    	mov	w0, #0x0                ; =0
100003274: a9417bfd    	ldp	x29, x30, [sp, #0x10]
100003278: a8c24ff4    	ldp	x20, x19, [sp], #0x20
10000327c: d65f03c0    	ret

0000000100003280 <_argon2id_verify_ctx>:
100003280: a9be4ff4    	stp	x20, x19, [sp, #-0x20]!
100003284: a9017bfd    	stp	x29, x30, [sp, #0x10]
100003288: 910043fd    	add	x29, sp, #0x10
10000328c: aa0103f3    	mov	x19, x1
100003290: aa0003f4    	mov	x20, x0
100003294: 52800041    	mov	w1, #0x2                ; =2
100003298: 97fffd45    	bl	0x1000027ac <_argon2_ctx>
10000329c: 34000080    	cbz	w0, 0x1000032ac <_argon2id_verify_ctx+0x2c>
1000032a0: a9417bfd    	ldp	x29, x30, [sp, #0x10]
1000032a4: a8c24ff4    	ldp	x20, x19, [sp], #0x20
1000032a8: d65f03c0    	ret
1000032ac: b9400a88    	ldr	w8, [x20, #0x8]
1000032b0: 34000a88    	cbz	w8, 0x100003400 <_argon2id_verify_ctx+0x180>
1000032b4: f9400289    	ldr	x9, [x20]
1000032b8: 7100211f    	cmp	w8, #0x8
1000032bc: 54000082    	b.hs	0x1000032cc <_argon2id_verify_ctx+0x4c>
1000032c0: 5280000b    	mov	w11, #0x0               ; =0
1000032c4: d280000a    	mov	x10, #0x0               ; =0
1000032c8: 1400003e    	b	0x1000033c0 <_argon2id_verify_ctx+0x140>
1000032cc: 7101011f    	cmp	w8, #0x40
1000032d0: 54000082    	b.hs	0x1000032e0 <_argon2id_verify_ctx+0x60>
1000032d4: 5280000b    	mov	w11, #0x0               ; =0
1000032d8: d280000a    	mov	x10, #0x0               ; =0
1000032dc: 14000025    	b	0x100003370 <_argon2id_verify_ctx+0xf0>
1000032e0: 927a650a    	and	x10, x8, #0xffffffc0
1000032e4: 9100812b    	add	x11, x9, #0x20
1000032e8: 9100826c    	add	x12, x19, #0x20
1000032ec: 6f00e400    	movi.2d	v0, #0000000000000000
1000032f0: aa0a03ed    	mov	x13, x10
1000032f4: 6f00e401    	movi.2d	v1, #0000000000000000
1000032f8: 6f00e402    	movi.2d	v2, #0000000000000000
1000032fc: 6f00e403    	movi.2d	v3, #0000000000000000
100003300: ad7f1584    	ldp	q4, q5, [x12, #-0x20]
100003304: acc21d86    	ldp	q6, q7, [x12], #0x40
100003308: ad7f4570    	ldp	q16, q17, [x11, #-0x20]
10000330c: acc24d72    	ldp	q18, q19, [x11], #0x40
100003310: 6e241e04    	eor.16b	v4, v16, v4
100003314: 6e251e25    	eor.16b	v5, v17, v5
100003318: 6e261e46    	eor.16b	v6, v18, v6
10000331c: 6e271e67    	eor.16b	v7, v19, v7
100003320: 4ea01c80    	orr.16b	v0, v4, v0
100003324: 4ea11ca1    	orr.16b	v1, v5, v1
100003328: 4ea21cc2    	orr.16b	v2, v6, v2
10000332c: 4ea31ce3    	orr.16b	v3, v7, v3
100003330: f10101ad    	subs	x13, x13, #0x40
100003334: 54fffe61    	b.ne	0x100003300 <_argon2id_verify_ctx+0x80>
100003338: 4ea01c20    	orr.16b	v0, v1, v0
10000333c: 4ea01c40    	orr.16b	v0, v2, v0
100003340: 4ea01c60    	orr.16b	v0, v3, v0
100003344: 6e004001    	ext.16b	v1, v0, v0, #0x8
100003348: 0ea11c00    	orr.8b	v0, v0, v1
10000334c: 9e66000b    	fmov	x11, d0
100003350: aa4b816b    	orr	x11, x11, x11, lsr #32
100003354: aa4b416b    	orr	x11, x11, x11, lsr #16
100003358: d348fd6c    	lsr	x12, x11, #8
10000335c: 2a0c016b    	orr	w11, w11, w12
100003360: eb08015f    	cmp	x10, x8
100003364: 54000400    	b.eq	0x1000033e4 <_argon2id_verify_ctx+0x164>
100003368: f27d091f    	tst	x8, #0x38
10000336c: 540002a0    	b.eq	0x1000033c0 <_argon2id_verify_ctx+0x140>
100003370: aa0a03ed    	mov	x13, x10
100003374: 927d710a    	and	x10, x8, #0xfffffff8
100003378: 6f00e400    	movi.2d	v0, #0000000000000000
10000337c: 4e011d60    	mov.b	v0[0], w11
100003380: 8b0d026b    	add	x11, x19, x13
100003384: 8b0d012c    	add	x12, x9, x13
100003388: cb0a01ad    	sub	x13, x13, x10
10000338c: fc408561    	ldr	d1, [x11], #0x8
100003390: fc408582    	ldr	d2, [x12], #0x8
100003394: 2e211c41    	eor.8b	v1, v2, v1
100003398: 0ea01c20    	orr.8b	v0, v1, v0
10000339c: b10021ad    	adds	x13, x13, #0x8
1000033a0: 54ffff61    	b.ne	0x10000338c <_argon2id_verify_ctx+0x10c>
1000033a4: 9e66000b    	fmov	x11, d0
1000033a8: aa4b816b    	orr	x11, x11, x11, lsr #32
1000033ac: aa4b416b    	orr	x11, x11, x11, lsr #16
1000033b0: d348fd6c    	lsr	x12, x11, #8
1000033b4: 2a0c016b    	orr	w11, w11, w12
1000033b8: eb08015f    	cmp	x10, x8
1000033bc: 54000140    	b.eq	0x1000033e4 <_argon2id_verify_ctx+0x164>
1000033c0: cb0a0108    	sub	x8, x8, x10
1000033c4: 8b0a0129    	add	x9, x9, x10
1000033c8: 8b0a026a    	add	x10, x19, x10
1000033cc: 3840154c    	ldrb	w12, [x10], #0x1
1000033d0: 3840152d    	ldrb	w13, [x9], #0x1
1000033d4: 4a0c01ac    	eor	w12, w13, w12
1000033d8: 2a0b018b    	orr	w11, w12, w11
1000033dc: f1000508    	subs	x8, x8, #0x1
1000033e0: 54ffff61    	b.ne	0x1000033cc <_argon2id_verify_ctx+0x14c>
1000033e4: 12001d68    	and	w8, w11, #0xff
1000033e8: 51000508    	sub	w8, w8, #0x1
1000033ec: 374000a8    	tbnz	w8, #0x8, 0x100003400 <_argon2id_verify_ctx+0x180>
1000033f0: 12800440    	mov	w0, #-0x23              ; =-35
1000033f4: a9417bfd    	ldp	x29, x30, [sp, #0x10]
1000033f8: a8c24ff4    	ldp	x20, x19, [sp], #0x20
1000033fc: d65f03c0    	ret
100003400: 52800000    	mov	w0, #0x0                ; =0
100003404: a9417bfd    	ldp	x29, x30, [sp, #0x10]
100003408: a8c24ff4    	ldp	x20, x19, [sp], #0x20
10000340c: d65f03c0    	ret

0000000100003410 <_argon2_error_message>:
100003410: 11008c08    	add	w8, w0, #0x23
100003414: 71008d1f    	cmp	w8, #0x23
100003418: 540000a8    	b.hi	0x10000342c <_argon2_error_message+0x1c>
10000341c: b0000029    	adrp	x9, 0x100008000 <_strncmp+0x100008000>
100003420: 9103e129    	add	x9, x9, #0xf8
100003424: f868d920    	ldr	x0, [x9, w8, sxtw #3]
100003428: d65f03c0    	ret
10000342c: 90000020    	adrp	x0, 0x100007000 <_strncmp+0x100007000>
100003430: 913ad000    	add	x0, x0, #0xeb4
100003434: d65f03c0    	ret

0000000100003438 <_argon2_encodedlen>:
100003438: a9bc5ff8    	stp	x24, x23, [sp, #-0x40]!
10000343c: a90157f6    	stp	x22, x21, [sp, #0x10]
100003440: a9024ff4    	stp	x20, x19, [sp, #0x20]
100003444: a9037bfd    	stp	x29, x30, [sp, #0x30]
100003448: 9100c3fd    	add	x29, sp, #0x30
10000344c: aa0403f3    	mov	x19, x4
100003450: aa0303f4    	mov	x20, x3
100003454: aa0203f5    	mov	x21, x2
100003458: aa0103f6    	mov	x22, x1
10000345c: aa0003f7    	mov	x23, x0
100003460: b0000028    	adrp	x8, 0x100008000 <_strncmp+0x100008000>
100003464: 91086108    	add	x8, x8, #0x218
100003468: f865d900    	ldr	x0, [x8, w5, sxtw #3]
10000346c: 94000f0f    	bl	0x1000070a8 <_strncmp+0x1000070a8>
100003470: aa0003f8    	mov	x24, x0
100003474: aa1703e0    	mov	x0, x23
100003478: 94000c2b    	bl	0x100006524 <_numlen>
10000347c: aa0003f7    	mov	x23, x0
100003480: aa1603e0    	mov	x0, x22
100003484: 94000c28    	bl	0x100006524 <_numlen>
100003488: aa0003f6    	mov	x22, x0
10000348c: aa1503e0    	mov	x0, x21
100003490: 94000c25    	bl	0x100006524 <_numlen>
100003494: aa0003f5    	mov	x21, x0
100003498: aa1403e0    	mov	x0, x20
10000349c: 94000c13    	bl	0x1000064e8 <_b64len>
1000034a0: aa0003f4    	mov	x20, x0
1000034a4: aa1303e0    	mov	x0, x19
1000034a8: 94000c10    	bl	0x1000064e8 <_b64len>
1000034ac: aa0003f3    	mov	x19, x0
1000034b0: 52800260    	mov	w0, #0x13               ; =19
1000034b4: 94000c1c    	bl	0x100006524 <_numlen>
1000034b8: 8b1602e8    	add	x8, x23, x22
1000034bc: 8b150108    	add	x8, x8, x21
1000034c0: 8b140108    	add	x8, x8, x20
1000034c4: 8b130108    	add	x8, x8, x19
1000034c8: 8b000108    	add	x8, x8, x0
1000034cc: 8b080308    	add	x8, x24, x8
1000034d0: 91004100    	add	x0, x8, #0x10
1000034d4: a9437bfd    	ldp	x29, x30, [sp, #0x30]
1000034d8: a9424ff4    	ldp	x20, x19, [sp, #0x20]
1000034dc: a94157f6    	ldp	x22, x21, [sp, #0x10]
1000034e0: a8c45ff8    	ldp	x24, x23, [sp], #0x40
1000034e4: d65f03c0    	ret

00000001000034e8 <_init_block_value>:
1000034e8: 52808002    	mov	w2, #0x400              ; =1024
1000034ec: 14000ecb    	b	0x100007018 <_strncmp+0x100007018>

00000001000034f0 <_copy_block>:
1000034f0: 52808002    	mov	w2, #0x400              ; =1024
1000034f4: 14000ec6    	b	0x10000700c <_strncmp+0x10000700c>

00000001000034f8 <_xor_block>:
1000034f8: 91100008    	add	x8, x0, #0x400
1000034fc: 91100029    	add	x9, x1, #0x400
100003500: eb00013f    	cmp	x9, x0
100003504: fa418100    	ccmp	x8, x1, #0x0, hi
100003508: 54001448    	b.hi	0x100003790 <_xor_block+0x298>
10000350c: ad400420    	ldp	q0, q1, [x1]
100003510: ad410c22    	ldp	q2, q3, [x1, #0x20]
100003514: ad401404    	ldp	q4, q5, [x0]
100003518: ad411c06    	ldp	q6, q7, [x0, #0x20]
10000351c: 6e201c80    	eor.16b	v0, v4, v0
100003520: 6e211ca1    	eor.16b	v1, v5, v1
100003524: 6e221cc2    	eor.16b	v2, v6, v2
100003528: 6e231ce3    	eor.16b	v3, v7, v3
10000352c: ad000400    	stp	q0, q1, [x0]
100003530: ad010c02    	stp	q2, q3, [x0, #0x20]
100003534: ad420420    	ldp	q0, q1, [x1, #0x40]
100003538: ad430c22    	ldp	q2, q3, [x1, #0x60]
10000353c: ad421404    	ldp	q4, q5, [x0, #0x40]
100003540: ad431c06    	ldp	q6, q7, [x0, #0x60]
100003544: 6e201c80    	eor.16b	v0, v4, v0
100003548: 6e211ca1    	eor.16b	v1, v5, v1
10000354c: 6e221cc2    	eor.16b	v2, v6, v2
100003550: 6e231ce3    	eor.16b	v3, v7, v3
100003554: ad020400    	stp	q0, q1, [x0, #0x40]
100003558: ad030c02    	stp	q2, q3, [x0, #0x60]
10000355c: ad440420    	ldp	q0, q1, [x1, #0x80]
100003560: ad450c22    	ldp	q2, q3, [x1, #0xa0]
100003564: ad441404    	ldp	q4, q5, [x0, #0x80]
100003568: ad451c06    	ldp	q6, q7, [x0, #0xa0]
10000356c: 6e201c80    	eor.16b	v0, v4, v0
100003570: 6e211ca1    	eor.16b	v1, v5, v1
100003574: 6e221cc2    	eor.16b	v2, v6, v2
100003578: 6e231ce3    	eor.16b	v3, v7, v3
10000357c: ad040400    	stp	q0, q1, [x0, #0x80]
100003580: ad050c02    	stp	q2, q3, [x0, #0xa0]
100003584: ad460420    	ldp	q0, q1, [x1, #0xc0]
100003588: ad470c22    	ldp	q2, q3, [x1, #0xe0]
10000358c: ad461404    	ldp	q4, q5, [x0, #0xc0]
100003590: ad471c06    	ldp	q6, q7, [x0, #0xe0]
100003594: 6e201c80    	eor.16b	v0, v4, v0
100003598: 6e211ca1    	eor.16b	v1, v5, v1
10000359c: 6e221cc2    	eor.16b	v2, v6, v2
1000035a0: 6e231ce3    	eor.16b	v3, v7, v3
1000035a4: ad060400    	stp	q0, q1, [x0, #0xc0]
1000035a8: ad070c02    	stp	q2, q3, [x0, #0xe0]
1000035ac: ad480420    	ldp	q0, q1, [x1, #0x100]
1000035b0: ad490c22    	ldp	q2, q3, [x1, #0x120]
1000035b4: ad481404    	ldp	q4, q5, [x0, #0x100]
1000035b8: ad491c06    	ldp	q6, q7, [x0, #0x120]
1000035bc: 6e201c80    	eor.16b	v0, v4, v0
1000035c0: 6e211ca1    	eor.16b	v1, v5, v1
1000035c4: 6e221cc2    	eor.16b	v2, v6, v2
1000035c8: 6e231ce3    	eor.16b	v3, v7, v3
1000035cc: ad080400    	stp	q0, q1, [x0, #0x100]
1000035d0: ad090c02    	stp	q2, q3, [x0, #0x120]
1000035d4: ad4a0420    	ldp	q0, q1, [x1, #0x140]
1000035d8: ad4b0c22    	ldp	q2, q3, [x1, #0x160]
1000035dc: ad4a1404    	ldp	q4, q5, [x0, #0x140]
1000035e0: ad4b1c06    	ldp	q6, q7, [x0, #0x160]
1000035e4: 6e201c80    	eor.16b	v0, v4, v0
1000035e8: 6e211ca1    	eor.16b	v1, v5, v1
1000035ec: 6e221cc2    	eor.16b	v2, v6, v2
1000035f0: 6e231ce3    	eor.16b	v3, v7, v3
1000035f4: ad0a0400    	stp	q0, q1, [x0, #0x140]
1000035f8: ad0b0c02    	stp	q2, q3, [x0, #0x160]
1000035fc: ad4c0420    	ldp	q0, q1, [x1, #0x180]
100003600: ad4d0c22    	ldp	q2, q3, [x1, #0x1a0]
100003604: ad4c1404    	ldp	q4, q5, [x0, #0x180]
100003608: ad4d1c06    	ldp	q6, q7, [x0, #0x1a0]
10000360c: 6e201c80    	eor.16b	v0, v4, v0
100003610: 6e211ca1    	eor.16b	v1, v5, v1
100003614: 6e221cc2    	eor.16b	v2, v6, v2
100003618: 6e231ce3    	eor.16b	v3, v7, v3
10000361c: ad0c0400    	stp	q0, q1, [x0, #0x180]
100003620: ad0d0c02    	stp	q2, q3, [x0, #0x1a0]
100003624: ad4e0420    	ldp	q0, q1, [x1, #0x1c0]
100003628: ad4f0c22    	ldp	q2, q3, [x1, #0x1e0]
10000362c: ad4e1404    	ldp	q4, q5, [x0, #0x1c0]
100003630: ad4f1c06    	ldp	q6, q7, [x0, #0x1e0]
100003634: 6e201c80    	eor.16b	v0, v4, v0
100003638: 6e211ca1    	eor.16b	v1, v5, v1
10000363c: 6e221cc2    	eor.16b	v2, v6, v2
100003640: 6e231ce3    	eor.16b	v3, v7, v3
100003644: ad0e0400    	stp	q0, q1, [x0, #0x1c0]
100003648: ad0f0c02    	stp	q2, q3, [x0, #0x1e0]
10000364c: ad500420    	ldp	q0, q1, [x1, #0x200]
100003650: ad510c22    	ldp	q2, q3, [x1, #0x220]
100003654: ad501404    	ldp	q4, q5, [x0, #0x200]
100003658: ad511c06    	ldp	q6, q7, [x0, #0x220]
10000365c: 6e201c80    	eor.16b	v0, v4, v0
100003660: 6e211ca1    	eor.16b	v1, v5, v1
100003664: 6e221cc2    	eor.16b	v2, v6, v2
100003668: 6e231ce3    	eor.16b	v3, v7, v3
10000366c: ad100400    	stp	q0, q1, [x0, #0x200]
100003670: ad110c02    	stp	q2, q3, [x0, #0x220]
100003674: ad520420    	ldp	q0, q1, [x1, #0x240]
100003678: ad530c22    	ldp	q2, q3, [x1, #0x260]
10000367c: ad521404    	ldp	q4, q5, [x0, #0x240]
100003680: ad531c06    	ldp	q6, q7, [x0, #0x260]
100003684: 6e201c80    	eor.16b	v0, v4, v0
100003688: 6e211ca1    	eor.16b	v1, v5, v1
10000368c: 6e221cc2    	eor.16b	v2, v6, v2
100003690: 6e231ce3    	eor.16b	v3, v7, v3
100003694: ad120400    	stp	q0, q1, [x0, #0x240]
100003698: ad130c02    	stp	q2, q3, [x0, #0x260]
10000369c: ad540420    	ldp	q0, q1, [x1, #0x280]
1000036a0: ad550c22    	ldp	q2, q3, [x1, #0x2a0]
1000036a4: ad541404    	ldp	q4, q5, [x0, #0x280]
1000036a8: ad551c06    	ldp	q6, q7, [x0, #0x2a0]
1000036ac: 6e201c80    	eor.16b	v0, v4, v0
1000036b0: 6e211ca1    	eor.16b	v1, v5, v1
1000036b4: 6e221cc2    	eor.16b	v2, v6, v2
1000036b8: 6e231ce3    	eor.16b	v3, v7, v3
1000036bc: ad140400    	stp	q0, q1, [x0, #0x280]
1000036c0: ad150c02    	stp	q2, q3, [x0, #0x2a0]
1000036c4: ad560420    	ldp	q0, q1, [x1, #0x2c0]
1000036c8: ad570c22    	ldp	q2, q3, [x1, #0x2e0]
1000036cc: ad561404    	ldp	q4, q5, [x0, #0x2c0]
1000036d0: ad571c06    	ldp	q6, q7, [x0, #0x2e0]
1000036d4: 6e201c80    	eor.16b	v0, v4, v0
1000036d8: 6e211ca1    	eor.16b	v1, v5, v1
1000036dc: 6e221cc2    	eor.16b	v2, v6, v2
1000036e0: 6e231ce3    	eor.16b	v3, v7, v3
1000036e4: ad160400    	stp	q0, q1, [x0, #0x2c0]
1000036e8: ad170c02    	stp	q2, q3, [x0, #0x2e0]
1000036ec: ad580420    	ldp	q0, q1, [x1, #0x300]
1000036f0: ad590c22    	ldp	q2, q3, [x1, #0x320]
1000036f4: ad581404    	ldp	q4, q5, [x0, #0x300]
1000036f8: ad591c06    	ldp	q6, q7, [x0, #0x320]
1000036fc: 6e201c80    	eor.16b	v0, v4, v0
100003700: 6e211ca1    	eor.16b	v1, v5, v1
100003704: 6e221cc2    	eor.16b	v2, v6, v2
100003708: 6e231ce3    	eor.16b	v3, v7, v3
10000370c: ad180400    	stp	q0, q1, [x0, #0x300]
100003710: ad190c02    	stp	q2, q3, [x0, #0x320]
100003714: ad5a0420    	ldp	q0, q1, [x1, #0x340]
100003718: ad5b0c22    	ldp	q2, q3, [x1, #0x360]
10000371c: ad5a1404    	ldp	q4, q5, [x0, #0x340]
100003720: ad5b1c06    	ldp	q6, q7, [x0, #0x360]
100003724: 6e201c80    	eor.16b	v0, v4, v0
100003728: 6e211ca1    	eor.16b	v1, v5, v1
10000372c: 6e221cc2    	eor.16b	v2, v6, v2
100003730: 6e231ce3    	eor.16b	v3, v7, v3
100003734: ad1a0400    	stp	q0, q1, [x0, #0x340]
100003738: ad1b0c02    	stp	q2, q3, [x0, #0x360]
10000373c: ad5c0420    	ldp	q0, q1, [x1, #0x380]
100003740: ad5d0c22    	ldp	q2, q3, [x1, #0x3a0]
100003744: ad5c1404    	ldp	q4, q5, [x0, #0x380]
100003748: ad5d1c06    	ldp	q6, q7, [x0, #0x3a0]
10000374c: 6e201c80    	eor.16b	v0, v4, v0
100003750: 6e211ca1    	eor.16b	v1, v5, v1
100003754: 6e221cc2    	eor.16b	v2, v6, v2
100003758: 6e231ce3    	eor.16b	v3, v7, v3
10000375c: ad1c0400    	stp	q0, q1, [x0, #0x380]
100003760: ad1d0c02    	stp	q2, q3, [x0, #0x3a0]
100003764: ad5e0420    	ldp	q0, q1, [x1, #0x3c0]
100003768: ad5f0c22    	ldp	q2, q3, [x1, #0x3e0]
10000376c: ad5e1404    	ldp	q4, q5, [x0, #0x3c0]
100003770: ad5f1c06    	ldp	q6, q7, [x0, #0x3e0]
100003774: 6e201c80    	eor.16b	v0, v4, v0
100003778: 6e211ca1    	eor.16b	v1, v5, v1
10000377c: 6e221cc2    	eor.16b	v2, v6, v2
100003780: 6e231ce3    	eor.16b	v3, v7, v3
100003784: ad1e0400    	stp	q0, q1, [x0, #0x3c0]
100003788: ad1f0c02    	stp	q2, q3, [x0, #0x3e0]
10000378c: d65f03c0    	ret
100003790: d2800008    	mov	x8, #0x0                ; =0
100003794: f8686829    	ldr	x9, [x1, x8]
100003798: f868680a    	ldr	x10, [x0, x8]
10000379c: ca090149    	eor	x9, x10, x9
1000037a0: f8286809    	str	x9, [x0, x8]
1000037a4: 91002108    	add	x8, x8, #0x8
1000037a8: f110011f    	cmp	x8, #0x400
1000037ac: 54ffff41    	b.ne	0x100003794 <_xor_block+0x29c>
1000037b0: d65f03c0    	ret

00000001000037b4 <_allocate_memory>:
1000037b4: 9bc27c68    	umulh	x8, x3, x2
1000037b8: eb0803ff    	cmp	xzr, x8
1000037bc: 1a9f07e9    	cset	w9, ne
1000037c0: 128002a8    	mov	w8, #-0x16              ; =-22
1000037c4: b40002a1    	cbz	x1, 0x100003818 <_allocate_memory+0x64>
1000037c8: 37000289    	tbnz	w9, #0x0, 0x100003818 <_allocate_memory+0x64>
1000037cc: a9be4ff4    	stp	x20, x19, [sp, #-0x20]!
1000037d0: a9017bfd    	stp	x29, x30, [sp, #0x10]
1000037d4: 910043fd    	add	x29, sp, #0x10
1000037d8: aa0103f3    	mov	x19, x1
1000037dc: 9b027c61    	mul	x1, x3, x2
1000037e0: f9403008    	ldr	x8, [x0, #0x60]
1000037e4: b40000a8    	cbz	x8, 0x1000037f8 <_allocate_memory+0x44>
1000037e8: aa1303e0    	mov	x0, x19
1000037ec: d63f0100    	blr	x8
1000037f0: f9400260    	ldr	x0, [x19]
1000037f4: 14000004    	b	0x100003804 <_allocate_memory+0x50>
1000037f8: aa0103e0    	mov	x0, x1
1000037fc: 94000e01    	bl	0x100007000 <_strncmp+0x100007000>
100003800: f9000260    	str	x0, [x19]
100003804: f100001f    	cmp	x0, #0x0
100003808: 128002a8    	mov	w8, #-0x16              ; =-22
10000380c: 1a9f0108    	csel	w8, w8, wzr, eq
100003810: a9417bfd    	ldp	x29, x30, [sp, #0x10]
100003814: a8c24ff4    	ldp	x20, x19, [sp], #0x20
100003818: aa0803e0    	mov	x0, x8
10000381c: d65f03c0    	ret

0000000100003820 <_free_memory>:
100003820: a9bd57f6    	stp	x22, x21, [sp, #-0x30]!
100003824: a9014ff4    	stp	x20, x19, [sp, #0x10]
100003828: a9027bfd    	stp	x29, x30, [sp, #0x20]
10000382c: 910083fd    	add	x29, sp, #0x20
100003830: aa0103f3    	mov	x19, x1
100003834: aa0003f5    	mov	x21, x0
100003838: 9b027c74    	mul	x20, x3, x2
10000383c: b40000e1    	cbz	x1, 0x100003858 <_free_memory+0x38>
100003840: b0000048    	adrp	x8, 0x10000c000 <_FLAG_clear_internal_memory>
100003844: b9400108    	ldr	w8, [x8]
100003848: 34000088    	cbz	w8, 0x100003858 <_free_memory+0x38>
10000384c: aa1303e0    	mov	x0, x19
100003850: aa1403e1    	mov	x1, x20
100003854: 94000014    	bl	0x1000038a4 <_secure_wipe_memory>
100003858: f94036a2    	ldr	x2, [x21, #0x68]
10000385c: b40000e2    	cbz	x2, 0x100003878 <_free_memory+0x58>
100003860: aa1303e0    	mov	x0, x19
100003864: aa1403e1    	mov	x1, x20
100003868: a9427bfd    	ldp	x29, x30, [sp, #0x20]
10000386c: a9414ff4    	ldp	x20, x19, [sp, #0x10]
100003870: a8c357f6    	ldp	x22, x21, [sp], #0x30
100003874: d61f0040    	br	x2
100003878: aa1303e0    	mov	x0, x19
10000387c: a9427bfd    	ldp	x29, x30, [sp, #0x20]
100003880: a9414ff4    	ldp	x20, x19, [sp, #0x10]
100003884: a8c357f6    	ldp	x22, x21, [sp], #0x30
100003888: 14000ddb    	b	0x100006ff4 <_strncmp+0x100006ff4>

000000010000388c <_clear_internal_memory>:
10000388c: b40000a0    	cbz	x0, 0x1000038a0 <_clear_internal_memory+0x14>
100003890: b0000048    	adrp	x8, 0x10000c000 <_FLAG_clear_internal_memory>
100003894: b9400108    	ldr	w8, [x8]
100003898: 34000048    	cbz	w8, 0x1000038a0 <_clear_internal_memory+0x14>
10000389c: 14000002    	b	0x1000038a4 <_secure_wipe_memory>
1000038a0: d65f03c0    	ret

00000001000038a4 <_secure_wipe_memory>:
1000038a4: d10083ff    	sub	sp, sp, #0x20
1000038a8: a9017bfd    	stp	x29, x30, [sp, #0x10]
1000038ac: 910043fd    	add	x29, sp, #0x10
1000038b0: f90007e0    	str	x0, [sp, #0x8]
1000038b4: f90003e1    	str	x1, [sp]
1000038b8: b0000028    	adrp	x8, 0x100008000 <_strncmp+0x100008000>
1000038bc: 9108c108    	add	x8, x8, #0x230
1000038c0: f9400108    	ldr	x8, [x8]
1000038c4: f94007e0    	ldr	x0, [sp, #0x8]
1000038c8: f94003e2    	ldr	x2, [sp]
1000038cc: 52800001    	mov	w1, #0x0                ; =0
1000038d0: d63f0100    	blr	x8
1000038d4: a9417bfd    	ldp	x29, x30, [sp, #0x10]
1000038d8: 910083ff    	add	sp, sp, #0x20
1000038dc: d65f03c0    	ret

00000001000038e0 <_finalize>:
1000038e0: a9bc5ff8    	stp	x24, x23, [sp, #-0x40]!
1000038e4: a90157f6    	stp	x22, x21, [sp, #0x10]
1000038e8: a9024ff4    	stp	x20, x19, [sp, #0x20]
1000038ec: a9037bfd    	stp	x29, x30, [sp, #0x30]
1000038f0: 9100c3fd    	add	x29, sp, #0x30
1000038f4: d12043ff    	sub	sp, sp, #0x810
1000038f8: b0000028    	adrp	x8, 0x100008000 <_strncmp+0x100008000>
1000038fc: f9401108    	ldr	x8, [x8, #0x20]
100003900: f9400108    	ldr	x8, [x8]
100003904: f81c83a8    	stur	x8, [x29, #-0x38]
100003908: b4001ec0    	cbz	x0, 0x100003ce0 <_finalize+0x400>
10000390c: aa0103f4    	mov	x20, x1
100003910: b4001e81    	cbz	x1, 0x100003ce0 <_finalize+0x400>
100003914: aa0003f3    	mov	x19, x0
100003918: f9400296    	ldr	x22, [x20]
10000391c: b9401a97    	ldr	w23, [x20, #0x18]
100003920: 8b172ac8    	add	x8, x22, x23, lsl #10
100003924: d1100101    	sub	x1, x8, #0x400
100003928: 910003f5    	mov	x21, sp
10000392c: 910003e0    	mov	x0, sp
100003930: 52808002    	mov	w2, #0x400              ; =1024
100003934: 94000db6    	bl	0x10000700c <_strncmp+0x10000700c>
100003938: b9401e88    	ldr	w8, [x20, #0x1c]
10000393c: 7100091f    	cmp	w8, #0x2
100003940: 54001863    	b.lo	0x100003c4c <_finalize+0x36c>
100003944: 52800009    	mov	w9, #0x0                ; =0
100003948: 510006ea    	sub	w10, w23, #0x1
10000394c: 911002ab    	add	x11, x21, #0x400
100003950: 531f7aec    	lsl	w12, w23, #1
100003954: 5100058c    	sub	w12, w12, #0x1
100003958: 911002cd    	add	x13, x22, #0x400
10000395c: 5280002e    	mov	w14, #0x1               ; =1
100003960: aa0c03ef    	mov	x15, x12
100003964: 140000a8    	b	0x100003c04 <_finalize+0x324>
100003968: 1b0e2af0    	madd	w16, w23, w14, w10
10000396c: 8b102ad0    	add	x16, x22, x16, lsl #10
100003970: ad400600    	ldp	q0, q1, [x16]
100003974: ad410e02    	ldp	q2, q3, [x16, #0x20]
100003978: ad4017e4    	ldp	q4, q5, [sp]
10000397c: ad411fe6    	ldp	q6, q7, [sp, #0x20]
100003980: 6e201c80    	eor.16b	v0, v4, v0
100003984: 6e211ca1    	eor.16b	v1, v5, v1
100003988: 6e221cc2    	eor.16b	v2, v6, v2
10000398c: 6e231ce3    	eor.16b	v3, v7, v3
100003990: ad0007e0    	stp	q0, q1, [sp]
100003994: ad010fe2    	stp	q2, q3, [sp, #0x20]
100003998: ad420600    	ldp	q0, q1, [x16, #0x40]
10000399c: ad430e02    	ldp	q2, q3, [x16, #0x60]
1000039a0: ad4217e4    	ldp	q4, q5, [sp, #0x40]
1000039a4: ad431fe6    	ldp	q6, q7, [sp, #0x60]
1000039a8: 6e201c80    	eor.16b	v0, v4, v0
1000039ac: 6e211ca1    	eor.16b	v1, v5, v1
1000039b0: 6e221cc2    	eor.16b	v2, v6, v2
1000039b4: 6e231ce3    	eor.16b	v3, v7, v3
1000039b8: ad0207e0    	stp	q0, q1, [sp, #0x40]
1000039bc: ad030fe2    	stp	q2, q3, [sp, #0x60]
1000039c0: ad440600    	ldp	q0, q1, [x16, #0x80]
1000039c4: ad450e02    	ldp	q2, q3, [x16, #0xa0]
1000039c8: ad4417e4    	ldp	q4, q5, [sp, #0x80]
1000039cc: ad451fe6    	ldp	q6, q7, [sp, #0xa0]
1000039d0: 6e201c80    	eor.16b	v0, v4, v0
1000039d4: 6e211ca1    	eor.16b	v1, v5, v1
1000039d8: 6e221cc2    	eor.16b	v2, v6, v2
1000039dc: 6e231ce3    	eor.16b	v3, v7, v3
1000039e0: ad0407e0    	stp	q0, q1, [sp, #0x80]
1000039e4: ad050fe2    	stp	q2, q3, [sp, #0xa0]
1000039e8: ad460600    	ldp	q0, q1, [x16, #0xc0]
1000039ec: ad470e02    	ldp	q2, q3, [x16, #0xe0]
1000039f0: ad4617e4    	ldp	q4, q5, [sp, #0xc0]
1000039f4: ad471fe6    	ldp	q6, q7, [sp, #0xe0]
1000039f8: 6e201c80    	eor.16b	v0, v4, v0
1000039fc: 6e211ca1    	eor.16b	v1, v5, v1
100003a00: 6e221cc2    	eor.16b	v2, v6, v2
100003a04: 6e231ce3    	eor.16b	v3, v7, v3
100003a08: ad0607e0    	stp	q0, q1, [sp, #0xc0]
100003a0c: ad070fe2    	stp	q2, q3, [sp, #0xe0]
100003a10: ad480600    	ldp	q0, q1, [x16, #0x100]
100003a14: ad490e02    	ldp	q2, q3, [x16, #0x120]
100003a18: ad4817e4    	ldp	q4, q5, [sp, #0x100]
100003a1c: ad491fe6    	ldp	q6, q7, [sp, #0x120]
100003a20: 6e201c80    	eor.16b	v0, v4, v0
100003a24: 6e211ca1    	eor.16b	v1, v5, v1
100003a28: 6e221cc2    	eor.16b	v2, v6, v2
100003a2c: 6e231ce3    	eor.16b	v3, v7, v3
100003a30: ad0807e0    	stp	q0, q1, [sp, #0x100]
100003a34: ad090fe2    	stp	q2, q3, [sp, #0x120]
100003a38: ad4a0600    	ldp	q0, q1, [x16, #0x140]
100003a3c: ad4b0e02    	ldp	q2, q3, [x16, #0x160]
100003a40: ad4a17e4    	ldp	q4, q5, [sp, #0x140]
100003a44: ad4b1fe6    	ldp	q6, q7, [sp, #0x160]
100003a48: 6e201c80    	eor.16b	v0, v4, v0
100003a4c: 6e211ca1    	eor.16b	v1, v5, v1
100003a50: 6e221cc2    	eor.16b	v2, v6, v2
100003a54: 6e231ce3    	eor.16b	v3, v7, v3
100003a58: ad0a07e0    	stp	q0, q1, [sp, #0x140]
100003a5c: ad0b0fe2    	stp	q2, q3, [sp, #0x160]
100003a60: ad4c0600    	ldp	q0, q1, [x16, #0x180]
100003a64: ad4d0e02    	ldp	q2, q3, [x16, #0x1a0]
100003a68: ad4c17e4    	ldp	q4, q5, [sp, #0x180]
100003a6c: ad4d1fe6    	ldp	q6, q7, [sp, #0x1a0]
100003a70: 6e201c80    	eor.16b	v0, v4, v0
100003a74: 6e211ca1    	eor.16b	v1, v5, v1
100003a78: 6e221cc2    	eor.16b	v2, v6, v2
100003a7c: 6e231ce3    	eor.16b	v3, v7, v3
100003a80: ad0c07e0    	stp	q0, q1, [sp, #0x180]
100003a84: ad0d0fe2    	stp	q2, q3, [sp, #0x1a0]
100003a88: ad4e0600    	ldp	q0, q1, [x16, #0x1c0]
100003a8c: ad4f0e02    	ldp	q2, q3, [x16, #0x1e0]
100003a90: ad4e17e4    	ldp	q4, q5, [sp, #0x1c0]
100003a94: ad4f1fe6    	ldp	q6, q7, [sp, #0x1e0]
100003a98: 6e201c80    	eor.16b	v0, v4, v0
100003a9c: 6e211ca1    	eor.16b	v1, v5, v1
100003aa0: 6e221cc2    	eor.16b	v2, v6, v2
100003aa4: 6e231ce3    	eor.16b	v3, v7, v3
100003aa8: ad0e07e0    	stp	q0, q1, [sp, #0x1c0]
100003aac: ad0f0fe2    	stp	q2, q3, [sp, #0x1e0]
100003ab0: ad500600    	ldp	q0, q1, [x16, #0x200]
100003ab4: ad510e02    	ldp	q2, q3, [x16, #0x220]
100003ab8: ad5017e4    	ldp	q4, q5, [sp, #0x200]
100003abc: ad511fe6    	ldp	q6, q7, [sp, #0x220]
100003ac0: 6e201c80    	eor.16b	v0, v4, v0
100003ac4: 6e211ca1    	eor.16b	v1, v5, v1
100003ac8: 6e221cc2    	eor.16b	v2, v6, v2
100003acc: 6e231ce3    	eor.16b	v3, v7, v3
100003ad0: ad1007e0    	stp	q0, q1, [sp, #0x200]
100003ad4: ad110fe2    	stp	q2, q3, [sp, #0x220]
100003ad8: ad520600    	ldp	q0, q1, [x16, #0x240]
100003adc: ad530e02    	ldp	q2, q3, [x16, #0x260]
100003ae0: ad5217e4    	ldp	q4, q5, [sp, #0x240]
100003ae4: ad531fe6    	ldp	q6, q7, [sp, #0x260]
100003ae8: 6e201c80    	eor.16b	v0, v4, v0
100003aec: 6e211ca1    	eor.16b	v1, v5, v1
100003af0: 6e221cc2    	eor.16b	v2, v6, v2
100003af4: 6e231ce3    	eor.16b	v3, v7, v3
100003af8: ad1207e0    	stp	q0, q1, [sp, #0x240]
100003afc: ad130fe2    	stp	q2, q3, [sp, #0x260]
100003b00: ad540600    	ldp	q0, q1, [x16, #0x280]
100003b04: ad550e02    	ldp	q2, q3, [x16, #0x2a0]
100003b08: ad5417e4    	ldp	q4, q5, [sp, #0x280]
100003b0c: ad551fe6    	ldp	q6, q7, [sp, #0x2a0]
100003b10: 6e201c80    	eor.16b	v0, v4, v0
100003b14: 6e211ca1    	eor.16b	v1, v5, v1
100003b18: 6e221cc2    	eor.16b	v2, v6, v2
100003b1c: 6e231ce3    	eor.16b	v3, v7, v3
100003b20: ad1407e0    	stp	q0, q1, [sp, #0x280]
100003b24: ad150fe2    	stp	q2, q3, [sp, #0x2a0]
100003b28: ad560600    	ldp	q0, q1, [x16, #0x2c0]
100003b2c: ad570e02    	ldp	q2, q3, [x16, #0x2e0]
100003b30: ad5617e4    	ldp	q4, q5, [sp, #0x2c0]
100003b34: ad571fe6    	ldp	q6, q7, [sp, #0x2e0]
100003b38: 6e201c80    	eor.16b	v0, v4, v0
100003b3c: 6e211ca1    	eor.16b	v1, v5, v1
100003b40: 6e221cc2    	eor.16b	v2, v6, v2
100003b44: 6e231ce3    	eor.16b	v3, v7, v3
100003b48: ad1607e0    	stp	q0, q1, [sp, #0x2c0]
100003b4c: ad170fe2    	stp	q2, q3, [sp, #0x2e0]
100003b50: ad580600    	ldp	q0, q1, [x16, #0x300]
100003b54: ad590e02    	ldp	q2, q3, [x16, #0x320]
100003b58: ad5817e4    	ldp	q4, q5, [sp, #0x300]
100003b5c: ad591fe6    	ldp	q6, q7, [sp, #0x320]
100003b60: 6e201c80    	eor.16b	v0, v4, v0
100003b64: 6e211ca1    	eor.16b	v1, v5, v1
100003b68: 6e221cc2    	eor.16b	v2, v6, v2
100003b6c: 6e231ce3    	eor.16b	v3, v7, v3
100003b70: ad1807e0    	stp	q0, q1, [sp, #0x300]
100003b74: ad190fe2    	stp	q2, q3, [sp, #0x320]
100003b78: ad5a0600    	ldp	q0, q1, [x16, #0x340]
100003b7c: ad5b0e02    	ldp	q2, q3, [x16, #0x360]
100003b80: ad5a17e4    	ldp	q4, q5, [sp, #0x340]
100003b84: ad5b1fe6    	ldp	q6, q7, [sp, #0x360]
100003b88: 6e201c80    	eor.16b	v0, v4, v0
100003b8c: 6e211ca1    	eor.16b	v1, v5, v1
100003b90: 6e221cc2    	eor.16b	v2, v6, v2
100003b94: 6e231ce3    	eor.16b	v3, v7, v3
100003b98: ad1a07e0    	stp	q0, q1, [sp, #0x340]
100003b9c: ad1b0fe2    	stp	q2, q3, [sp, #0x360]
100003ba0: ad5c0600    	ldp	q0, q1, [x16, #0x380]
100003ba4: ad5d0e02    	ldp	q2, q3, [x16, #0x3a0]
100003ba8: ad5c17e4    	ldp	q4, q5, [sp, #0x380]
100003bac: ad5d1fe6    	ldp	q6, q7, [sp, #0x3a0]
100003bb0: 6e201c80    	eor.16b	v0, v4, v0
100003bb4: 6e211ca1    	eor.16b	v1, v5, v1
100003bb8: 6e221cc2    	eor.16b	v2, v6, v2
100003bbc: 6e231ce3    	eor.16b	v3, v7, v3
100003bc0: ad1c07e0    	stp	q0, q1, [sp, #0x380]
100003bc4: ad1d0fe2    	stp	q2, q3, [sp, #0x3a0]
100003bc8: ad5e0600    	ldp	q0, q1, [x16, #0x3c0]
100003bcc: ad5f0e02    	ldp	q2, q3, [x16, #0x3e0]
100003bd0: ad5e17e4    	ldp	q4, q5, [sp, #0x3c0]
100003bd4: ad5f1fe6    	ldp	q6, q7, [sp, #0x3e0]
100003bd8: 6e201c80    	eor.16b	v0, v4, v0
100003bdc: 6e211ca1    	eor.16b	v1, v5, v1
100003be0: 6e221cc2    	eor.16b	v2, v6, v2
100003be4: 6e231ce3    	eor.16b	v3, v7, v3
100003be8: ad1e07e0    	stp	q0, q1, [sp, #0x3c0]
100003bec: ad1f0fe2    	stp	q2, q3, [sp, #0x3e0]
100003bf0: 910005ce    	add	x14, x14, #0x1
100003bf4: 11000529    	add	w9, w9, #0x1
100003bf8: 0b1701ef    	add	w15, w15, w23
100003bfc: eb0801df    	cmp	x14, x8
100003c00: 54000260    	b.eq	0x100003c4c <_finalize+0x36c>
100003c04: 1b0932f0    	madd	w16, w23, w9, w12
100003c08: d3767e10    	ubfiz	x16, x16, #10, #32
100003c0c: 8b1002d1    	add	x17, x22, x16
100003c10: 8b1001b0    	add	x16, x13, x16
100003c14: eb1002bf    	cmp	x21, x16
100003c18: fa4b3222    	ccmp	x17, x11, #0x2, lo
100003c1c: 54ffea62    	b.hs	0x100003968 <_finalize+0x88>
100003c20: d2800010    	mov	x16, #0x0               ; =0
100003c24: 2a0f03f1    	mov	w17, w15
100003c28: 8b112ad1    	add	x17, x22, x17, lsl #10
100003c2c: f8706a20    	ldr	x0, [x17, x16]
100003c30: f8706aa1    	ldr	x1, [x21, x16]
100003c34: ca000020    	eor	x0, x1, x0
100003c38: f8306aa0    	str	x0, [x21, x16]
100003c3c: 91002210    	add	x16, x16, #0x8
100003c40: f110021f    	cmp	x16, #0x400
100003c44: 54ffff41    	b.ne	0x100003c2c <_finalize+0x34c>
100003c48: 17ffffea    	b	0x100003bf0 <_finalize+0x310>
100003c4c: d2800008    	mov	x8, #0x0                ; =0
100003c50: 911023e9    	add	x9, sp, #0x408
100003c54: f8686aaa    	ldr	x10, [x21, x8]
100003c58: f828692a    	str	x10, [x9, x8]
100003c5c: 91002108    	add	x8, x8, #0x8
100003c60: f110011f    	cmp	x8, #0x400
100003c64: 54ffff81    	b.ne	0x100003c54 <_finalize+0x374>
100003c68: f9400260    	ldr	x0, [x19]
100003c6c: b9400a61    	ldr	w1, [x19, #0x8]
100003c70: 911023e2    	add	x2, sp, #0x408
100003c74: 52808003    	mov	w3, #0x400              ; =1024
100003c78: 9400060e    	bl	0x1000054b0 <_blake2b_long>
100003c7c: b0000056    	adrp	x22, 0x10000c000 <_FLAG_clear_internal_memory>
100003c80: b94002c8    	ldr	w8, [x22]
100003c84: 34000468    	cbz	w8, 0x100003d10 <_finalize+0x430>
100003c88: 910003e0    	mov	x0, sp
100003c8c: 52808001    	mov	w1, #0x400              ; =1024
100003c90: 97ffff05    	bl	0x1000038a4 <_secure_wipe_memory>
100003c94: b94002c8    	ldr	w8, [x22]
100003c98: 340003c8    	cbz	w8, 0x100003d10 <_finalize+0x430>
100003c9c: 911023e0    	add	x0, sp, #0x408
100003ca0: 52808001    	mov	w1, #0x400              ; =1024
100003ca4: 97ffff00    	bl	0x1000038a4 <_secure_wipe_memory>
100003ca8: f9400295    	ldr	x21, [x20]
100003cac: b9401288    	ldr	w8, [x20, #0x10]
100003cb0: d376d514    	lsl	x20, x8, #10
100003cb4: b40000d5    	cbz	x21, 0x100003ccc <_finalize+0x3ec>
100003cb8: b94002c8    	ldr	w8, [x22]
100003cbc: 34000088    	cbz	w8, 0x100003ccc <_finalize+0x3ec>
100003cc0: aa1503e0    	mov	x0, x21
100003cc4: aa1403e1    	mov	x1, x20
100003cc8: 97fffef7    	bl	0x1000038a4 <_secure_wipe_memory>
100003ccc: f9403668    	ldr	x8, [x19, #0x68]
100003cd0: b40002a8    	cbz	x8, 0x100003d24 <_finalize+0x444>
100003cd4: aa1503e0    	mov	x0, x21
100003cd8: aa1403e1    	mov	x1, x20
100003cdc: d63f0100    	blr	x8
100003ce0: f85c83a8    	ldur	x8, [x29, #-0x38]
100003ce4: b0000029    	adrp	x9, 0x100008000 <_strncmp+0x100008000>
100003ce8: f9401129    	ldr	x9, [x9, #0x20]
100003cec: f9400129    	ldr	x9, [x9]
100003cf0: eb08013f    	cmp	x9, x8
100003cf4: 54000281    	b.ne	0x100003d44 <_finalize+0x464>
100003cf8: 912043ff    	add	sp, sp, #0x810
100003cfc: a9437bfd    	ldp	x29, x30, [sp, #0x30]
100003d00: a9424ff4    	ldp	x20, x19, [sp, #0x20]
100003d04: a94157f6    	ldp	x22, x21, [sp, #0x10]
100003d08: a8c45ff8    	ldp	x24, x23, [sp], #0x40
100003d0c: d65f03c0    	ret
100003d10: f9400295    	ldr	x21, [x20]
100003d14: b9401288    	ldr	w8, [x20, #0x10]
100003d18: d376d514    	lsl	x20, x8, #10
100003d1c: f9403668    	ldr	x8, [x19, #0x68]
100003d20: b5fffda8    	cbnz	x8, 0x100003cd4 <_finalize+0x3f4>
100003d24: aa1503e0    	mov	x0, x21
100003d28: 94000cb3    	bl	0x100006ff4 <_strncmp+0x100006ff4>
100003d2c: f85c83a8    	ldur	x8, [x29, #-0x38]
100003d30: b0000029    	adrp	x9, 0x100008000 <_strncmp+0x100008000>
100003d34: f9401129    	ldr	x9, [x9, #0x20]
100003d38: f9400129    	ldr	x9, [x9]
100003d3c: eb08013f    	cmp	x9, x8
100003d40: 54fffdc0    	b.eq	0x100003cf8 <_finalize+0x418>
100003d44: 94000c91    	bl	0x100006f88 <_strncmp+0x100006f88>

0000000100003d48 <_index_alpha>:
100003d48: b9400028    	ldr	w8, [x1]
100003d4c: 34000108    	cbz	w8, 0x100003d6c <_index_alpha+0x24>
100003d50: 2942a009    	ldp	w9, w8, [x0, #0x14]
100003d54: 34000283    	cbz	w3, 0x100003da4 <_index_alpha+0x5c>
100003d58: b9400c2a    	ldr	w10, [x1, #0xc]
100003d5c: 2a2903eb    	mvn	w11, w9
100003d60: 0b0a0108    	add	w8, w8, w10
100003d64: 0b0b0108    	add	w8, w8, w11
100003d68: 14000014    	b	0x100003db8 <_index_alpha+0x70>
100003d6c: 39402028    	ldrb	w8, [x1, #0x8]
100003d70: 34000408    	cbz	w8, 0x100003df0 <_index_alpha+0xa8>
100003d74: b9401409    	ldr	w9, [x0, #0x14]
100003d78: 1b087d28    	mul	w8, w9, w8
100003d7c: b9400c29    	ldr	w9, [x1, #0xc]
100003d80: 7100013f    	cmp	w9, #0x0
100003d84: 1a9f17ea    	cset	w10, eq
100003d88: 4b0a010a    	sub	w10, w8, w10
100003d8c: 0b080128    	add	w8, w9, w8
100003d90: 51000508    	sub	w8, w8, #0x1
100003d94: 7100007f    	cmp	w3, #0x0
100003d98: 1a880148    	csel	w8, w10, w8, eq
100003d9c: 9a9f03e9    	csel	x9, xzr, xzr, eq
100003da0: 1400000a    	b	0x100003dc8 <_index_alpha+0x80>
100003da4: b9400c2a    	ldr	w10, [x1, #0xc]
100003da8: 7100015f    	cmp	w10, #0x0
100003dac: 1a9f17ea    	cset	w10, eq
100003db0: 4b090108    	sub	w8, w8, w9
100003db4: 4b0a0108    	sub	w8, w8, w10
100003db8: 3940202a    	ldrb	w10, [x1, #0x8]
100003dbc: 71000d5f    	cmp	w10, #0x3
100003dc0: 1b0a2529    	madd	w9, w9, w10, w9
100003dc4: 9a8903e9    	csel	x9, xzr, x9, eq
100003dc8: 5100050a    	sub	w10, w8, #0x1
100003dcc: 9ba27c4b    	umull	x11, w2, w2
100003dd0: d360fd6b    	lsr	x11, x11, #32
100003dd4: 9ba87d68    	umull	x8, w11, w8
100003dd8: 8b0a0129    	add	x9, x9, x10
100003ddc: cb488128    	sub	x8, x9, x8, lsr #32
100003de0: b9401809    	ldr	w9, [x0, #0x18]
100003de4: 9ac9090a    	udiv	x10, x8, x9
100003de8: 1b09a140    	msub	w0, w10, w9, w8
100003dec: d65f03c0    	ret
100003df0: d2800009    	mov	x9, #0x0                ; =0
100003df4: b9400c28    	ldr	w8, [x1, #0xc]
100003df8: 51000508    	sub	w8, w8, #0x1
100003dfc: 17fffff3    	b	0x100003dc8 <_index_alpha+0x80>

0000000100003e00 <_fill_memory_blocks>:
100003e00: d101c3ff    	sub	sp, sp, #0x70
100003e04: a9016ffc    	stp	x28, x27, [sp, #0x10]
100003e08: a90267fa    	stp	x26, x25, [sp, #0x20]
100003e0c: a9035ff8    	stp	x24, x23, [sp, #0x30]
100003e10: a90457f6    	stp	x22, x21, [sp, #0x40]
100003e14: a9054ff4    	stp	x20, x19, [sp, #0x50]
100003e18: a9067bfd    	stp	x29, x30, [sp, #0x60]
100003e1c: 910183fd    	add	x29, sp, #0x60
100003e20: b40001c0    	cbz	x0, 0x100003e58 <_fill_memory_blocks+0x58>
100003e24: aa0003f3    	mov	x19, x0
100003e28: b9401c15    	ldr	w21, [x0, #0x1c]
100003e2c: 34000175    	cbz	w21, 0x100003e58 <_fill_memory_blocks+0x58>
100003e30: b9402268    	ldr	w8, [x19, #0x20]
100003e34: 7100051f    	cmp	w8, #0x1
100003e38: 54000901    	b.ne	0x100003f58 <_fill_memory_blocks+0x158>
100003e3c: b9400e69    	ldr	w9, [x19, #0xc]
100003e40: 34002069    	cbz	w9, 0x10000424c <_fill_memory_blocks+0x44c>
100003e44: d2800016    	mov	x22, #0x0               ; =0
100003e48: 5280002a    	mov	w10, #0x1               ; =1
100003e4c: d2c00037    	mov	x23, #0x100000000       ; =4294967296
100003e50: aa1503e8    	mov	x8, x21
100003e54: 1400000a    	b	0x100003e7c <_fill_memory_blocks+0x7c>
100003e58: 12800313    	mov	w19, #-0x19             ; =-25
100003e5c: 1400010f    	b	0x100004298 <_fill_memory_blocks+0x498>
100003e60: aa1503f4    	mov	x20, x21
100003e64: b9400e69    	ldr	w9, [x19, #0xc]
100003e68: aa0803f5    	mov	x21, x8
100003e6c: aa0803ea    	mov	x10, x8
100003e70: 910006d6    	add	x22, x22, #0x1
100003e74: eb0902df    	cmp	x22, x9
100003e78: 54001ea2    	b.hs	0x10000424c <_fill_memory_blocks+0x44c>
100003e7c: 34ffffaa    	cbz	w10, 0x100003e70 <_fill_memory_blocks+0x70>
100003e80: 340004f5    	cbz	w21, 0x100003f1c <_fill_memory_blocks+0x11c>
100003e84: d2800015    	mov	x21, #0x0               ; =0
100003e88: d2800018    	mov	x24, #0x0               ; =0
100003e8c: 92785e94    	and	x20, x20, #0xffffff00
100003e90: aa1602a1    	orr	x1, x21, x22
100003e94: aa1303e0    	mov	x0, x19
100003e98: aa1403e2    	mov	x2, x20
100003e9c: 940009b1    	bl	0x100006560 <_fill_segment>
100003ea0: 91000718    	add	x24, x24, #0x1
100003ea4: b9401e68    	ldr	w8, [x19, #0x1c]
100003ea8: 8b1702b5    	add	x21, x21, x23
100003eac: eb08031f    	cmp	x24, x8
100003eb0: 54ffff03    	b.lo	0x100003e90 <_fill_memory_blocks+0x90>
100003eb4: 34fffd88    	cbz	w8, 0x100003e64 <_fill_memory_blocks+0x64>
100003eb8: d2800018    	mov	x24, #0x0               ; =0
100003ebc: d2800019    	mov	x25, #0x0               ; =0
100003ec0: b2400295    	orr	x21, x20, #0x1
100003ec4: aa160301    	orr	x1, x24, x22
100003ec8: aa1303e0    	mov	x0, x19
100003ecc: aa1503e2    	mov	x2, x21
100003ed0: 940009a4    	bl	0x100006560 <_fill_segment>
100003ed4: 91000739    	add	x25, x25, #0x1
100003ed8: b9401e68    	ldr	w8, [x19, #0x1c]
100003edc: 8b170318    	add	x24, x24, x23
100003ee0: eb08033f    	cmp	x25, x8
100003ee4: 54ffff03    	b.lo	0x100003ec4 <_fill_memory_blocks+0xc4>
100003ee8: 34fffbc8    	cbz	w8, 0x100003e60 <_fill_memory_blocks+0x60>
100003eec: d2800015    	mov	x21, #0x0               ; =0
100003ef0: d2800018    	mov	x24, #0x0               ; =0
100003ef4: b27f0294    	orr	x20, x20, #0x2
100003ef8: aa1602a1    	orr	x1, x21, x22
100003efc: aa1303e0    	mov	x0, x19
100003f00: aa1403e2    	mov	x2, x20
100003f04: 94000997    	bl	0x100006560 <_fill_segment>
100003f08: 91000718    	add	x24, x24, #0x1
100003f0c: b9401e68    	ldr	w8, [x19, #0x1c]
100003f10: 8b1702b5    	add	x21, x21, x23
100003f14: eb08031f    	cmp	x24, x8
100003f18: 54ffff03    	b.lo	0x100003ef8 <_fill_memory_blocks+0xf8>
100003f1c: 34fffa48    	cbz	w8, 0x100003e64 <_fill_memory_blocks+0x64>
100003f20: d2800015    	mov	x21, #0x0               ; =0
100003f24: d2800018    	mov	x24, #0x0               ; =0
100003f28: aa1602a1    	orr	x1, x21, x22
100003f2c: 92785e88    	and	x8, x20, #0xffffff00
100003f30: b2400514    	orr	x20, x8, #0x3
100003f34: aa1303e0    	mov	x0, x19
100003f38: aa1403e2    	mov	x2, x20
100003f3c: 94000989    	bl	0x100006560 <_fill_segment>
100003f40: 91000718    	add	x24, x24, #0x1
100003f44: b9401e68    	ldr	w8, [x19, #0x1c]
100003f48: 8b1702b5    	add	x21, x21, x23
100003f4c: eb08031f    	cmp	x24, x8
100003f50: 54fffec3    	b.lo	0x100003f28 <_fill_memory_blocks+0x128>
100003f54: 17ffffc4    	b	0x100003e64 <_fill_memory_blocks+0x64>
100003f58: aa1503e0    	mov	x0, x21
100003f5c: 52800101    	mov	w1, #0x8                ; =8
100003f60: 94000c10    	bl	0x100006fa0 <_strncmp+0x100006fa0>
100003f64: b4001780    	cbz	x0, 0x100004254 <_fill_memory_blocks+0x454>
100003f68: aa0003f4    	mov	x20, x0
100003f6c: aa1503e0    	mov	x0, x21
100003f70: 52800301    	mov	w1, #0x18               ; =24
100003f74: 94000c0b    	bl	0x100006fa0 <_strncmp+0x100006fa0>
100003f78: b4001720    	cbz	x0, 0x10000425c <_fill_memory_blocks+0x45c>
100003f7c: aa0003f5    	mov	x21, x0
100003f80: b9400e68    	ldr	w8, [x19, #0xc]
100003f84: 34001608    	cbz	w8, 0x100004244 <_fill_memory_blocks+0x444>
100003f88: 52800019    	mov	w25, #0x0               ; =0
100003f8c: 5280003a    	mov	w26, #0x1               ; =1
100003f90: 5280005b    	mov	w27, #0x2               ; =2
100003f94: 52800028    	mov	w8, #0x1                ; =1
100003f98: b0000016    	adrp	x22, 0x100004000 <_fill_memory_blocks+0x200>
100003f9c: 912942d6    	add	x22, x22, #0xa50
100003fa0: 340014a8    	cbz	w8, 0x100004234 <_fill_memory_blocks+0x434>
100003fa4: d280001c    	mov	x28, #0x0               ; =0
100003fa8: aa1503f7    	mov	x23, x21
100003fac: aa1403f8    	mov	x24, x20
100003fb0: b9402268    	ldr	w8, [x19, #0x20]
100003fb4: eb08039f    	cmp	x28, x8
100003fb8: 540000a3    	b.lo	0x100003fcc <_fill_memory_blocks+0x1cc>
100003fbc: 4b080388    	sub	w8, w28, w8
100003fc0: f8685a80    	ldr	x0, [x20, w8, uxtw #3]
100003fc4: 94000606    	bl	0x1000057dc <_argon2_thread_join>
100003fc8: 350015e0    	cbnz	w0, 0x100004284 <_fill_memory_blocks+0x484>
100003fcc: f90002f3    	str	x19, [x23]
100003fd0: 290172f9    	stp	w25, w28, [x23, #0x8]
100003fd4: 390042ff    	strb	wzr, [x23, #0x10]
100003fd8: 7840d3e8    	ldurh	w8, [sp, #0xd]
100003fdc: 780112e8    	sturh	w8, [x23, #0x11]
100003fe0: 39403fe8    	ldrb	w8, [sp, #0xf]
100003fe4: 39004ee8    	strb	w8, [x23, #0x13]
100003fe8: b90016ff    	str	wzr, [x23, #0x14]
100003fec: aa1803e0    	mov	x0, x24
100003ff0: aa1603e1    	mov	x1, x22
100003ff4: aa1703e2    	mov	x2, x23
100003ff8: 940005f1    	bl	0x1000057bc <_argon2_thread_create>
100003ffc: 35001360    	cbnz	w0, 0x100004268 <_fill_memory_blocks+0x468>
100004000: 9100079c    	add	x28, x28, #0x1
100004004: b9401e68    	ldr	w8, [x19, #0x1c]
100004008: 91002318    	add	x24, x24, #0x8
10000400c: 910062f7    	add	x23, x23, #0x18
100004010: eb08039f    	cmp	x28, x8
100004014: 54fffce3    	b.lo	0x100003fb0 <_fill_memory_blocks+0x1b0>
100004018: b9402269    	ldr	w9, [x19, #0x20]
10000401c: 4b090117    	sub	w23, w8, w9
100004020: 6b0802ff    	cmp	w23, w8
100004024: 54000102    	b.hs	0x100004044 <_fill_memory_blocks+0x244>
100004028: f8777a80    	ldr	x0, [x20, x23, lsl #3]
10000402c: 940005ec    	bl	0x1000057dc <_argon2_thread_join>
100004030: 350012a0    	cbnz	w0, 0x100004284 <_fill_memory_blocks+0x484>
100004034: 910006f7    	add	x23, x23, #0x1
100004038: b9401e68    	ldr	w8, [x19, #0x1c]
10000403c: eb0802ff    	cmp	x23, x8
100004040: 54ffff43    	b.lo	0x100004028 <_fill_memory_blocks+0x228>
100004044: 34000f88    	cbz	w8, 0x100004234 <_fill_memory_blocks+0x434>
100004048: d280001c    	mov	x28, #0x0               ; =0
10000404c: aa1503f7    	mov	x23, x21
100004050: aa1403f8    	mov	x24, x20
100004054: b9402268    	ldr	w8, [x19, #0x20]
100004058: eb08039f    	cmp	x28, x8
10000405c: 540000a3    	b.lo	0x100004070 <_fill_memory_blocks+0x270>
100004060: 4b080388    	sub	w8, w28, w8
100004064: f8685a80    	ldr	x0, [x20, w8, uxtw #3]
100004068: 940005dd    	bl	0x1000057dc <_argon2_thread_join>
10000406c: 350010c0    	cbnz	w0, 0x100004284 <_fill_memory_blocks+0x484>
100004070: f90002f3    	str	x19, [x23]
100004074: 290172f9    	stp	w25, w28, [x23, #0x8]
100004078: 390042fa    	strb	w26, [x23, #0x10]
10000407c: 7840d3e8    	ldurh	w8, [sp, #0xd]
100004080: 780112e8    	sturh	w8, [x23, #0x11]
100004084: 39403fe8    	ldrb	w8, [sp, #0xf]
100004088: 39004ee8    	strb	w8, [x23, #0x13]
10000408c: b90016ff    	str	wzr, [x23, #0x14]
100004090: aa1803e0    	mov	x0, x24
100004094: aa1603e1    	mov	x1, x22
100004098: aa1703e2    	mov	x2, x23
10000409c: 940005c8    	bl	0x1000057bc <_argon2_thread_create>
1000040a0: 35000e40    	cbnz	w0, 0x100004268 <_fill_memory_blocks+0x468>
1000040a4: 9100079c    	add	x28, x28, #0x1
1000040a8: b9401e68    	ldr	w8, [x19, #0x1c]
1000040ac: 91002318    	add	x24, x24, #0x8
1000040b0: 910062f7    	add	x23, x23, #0x18
1000040b4: eb08039f    	cmp	x28, x8
1000040b8: 54fffce3    	b.lo	0x100004054 <_fill_memory_blocks+0x254>
1000040bc: b9402269    	ldr	w9, [x19, #0x20]
1000040c0: 4b090117    	sub	w23, w8, w9
1000040c4: 6b0802ff    	cmp	w23, w8
1000040c8: 54000102    	b.hs	0x1000040e8 <_fill_memory_blocks+0x2e8>
1000040cc: f8777a80    	ldr	x0, [x20, x23, lsl #3]
1000040d0: 940005c3    	bl	0x1000057dc <_argon2_thread_join>
1000040d4: 35000d80    	cbnz	w0, 0x100004284 <_fill_memory_blocks+0x484>
1000040d8: 910006f7    	add	x23, x23, #0x1
1000040dc: b9401e68    	ldr	w8, [x19, #0x1c]
1000040e0: eb0802ff    	cmp	x23, x8
1000040e4: 54ffff43    	b.lo	0x1000040cc <_fill_memory_blocks+0x2cc>
1000040e8: 34000a68    	cbz	w8, 0x100004234 <_fill_memory_blocks+0x434>
1000040ec: d280001c    	mov	x28, #0x0               ; =0
1000040f0: aa1503f7    	mov	x23, x21
1000040f4: aa1403f8    	mov	x24, x20
1000040f8: b9402268    	ldr	w8, [x19, #0x20]
1000040fc: eb08039f    	cmp	x28, x8
100004100: 540000a3    	b.lo	0x100004114 <_fill_memory_blocks+0x314>
100004104: 4b080388    	sub	w8, w28, w8
100004108: f8685a80    	ldr	x0, [x20, w8, uxtw #3]
10000410c: 940005b4    	bl	0x1000057dc <_argon2_thread_join>
100004110: 35000ba0    	cbnz	w0, 0x100004284 <_fill_memory_blocks+0x484>
100004114: f90002f3    	str	x19, [x23]
100004118: 290172f9    	stp	w25, w28, [x23, #0x8]
10000411c: 390042fb    	strb	w27, [x23, #0x10]
100004120: 7840d3e8    	ldurh	w8, [sp, #0xd]
100004124: 780112e8    	sturh	w8, [x23, #0x11]
100004128: 39403fe8    	ldrb	w8, [sp, #0xf]
10000412c: 39004ee8    	strb	w8, [x23, #0x13]
100004130: b90016ff    	str	wzr, [x23, #0x14]
100004134: aa1803e0    	mov	x0, x24
100004138: aa1603e1    	mov	x1, x22
10000413c: aa1703e2    	mov	x2, x23
100004140: 9400059f    	bl	0x1000057bc <_argon2_thread_create>
100004144: 35000920    	cbnz	w0, 0x100004268 <_fill_memory_blocks+0x468>
100004148: 9100079c    	add	x28, x28, #0x1
10000414c: b9401e68    	ldr	w8, [x19, #0x1c]
100004150: 91002318    	add	x24, x24, #0x8
100004154: 910062f7    	add	x23, x23, #0x18
100004158: eb08039f    	cmp	x28, x8
10000415c: 54fffce3    	b.lo	0x1000040f8 <_fill_memory_blocks+0x2f8>
100004160: b9402269    	ldr	w9, [x19, #0x20]
100004164: 4b090117    	sub	w23, w8, w9
100004168: 6b0802ff    	cmp	w23, w8
10000416c: 54000102    	b.hs	0x10000418c <_fill_memory_blocks+0x38c>
100004170: f8777a80    	ldr	x0, [x20, x23, lsl #3]
100004174: 9400059a    	bl	0x1000057dc <_argon2_thread_join>
100004178: 35000860    	cbnz	w0, 0x100004284 <_fill_memory_blocks+0x484>
10000417c: 910006f7    	add	x23, x23, #0x1
100004180: b9401e68    	ldr	w8, [x19, #0x1c]
100004184: eb0802ff    	cmp	x23, x8
100004188: 54ffff43    	b.lo	0x100004170 <_fill_memory_blocks+0x370>
10000418c: 34000548    	cbz	w8, 0x100004234 <_fill_memory_blocks+0x434>
100004190: d280001c    	mov	x28, #0x0               ; =0
100004194: aa1503f7    	mov	x23, x21
100004198: aa1403f8    	mov	x24, x20
10000419c: b9402268    	ldr	w8, [x19, #0x20]
1000041a0: eb08039f    	cmp	x28, x8
1000041a4: 540000a3    	b.lo	0x1000041b8 <_fill_memory_blocks+0x3b8>
1000041a8: 4b080388    	sub	w8, w28, w8
1000041ac: f8685a80    	ldr	x0, [x20, w8, uxtw #3]
1000041b0: 9400058b    	bl	0x1000057dc <_argon2_thread_join>
1000041b4: 35000680    	cbnz	w0, 0x100004284 <_fill_memory_blocks+0x484>
1000041b8: f90002f3    	str	x19, [x23]
1000041bc: 290172f9    	stp	w25, w28, [x23, #0x8]
1000041c0: 52800068    	mov	w8, #0x3                ; =3
1000041c4: 390042e8    	strb	w8, [x23, #0x10]
1000041c8: 7840d3e8    	ldurh	w8, [sp, #0xd]
1000041cc: 780112e8    	sturh	w8, [x23, #0x11]
1000041d0: 39403fe8    	ldrb	w8, [sp, #0xf]
1000041d4: 39004ee8    	strb	w8, [x23, #0x13]
1000041d8: b90016ff    	str	wzr, [x23, #0x14]
1000041dc: aa1803e0    	mov	x0, x24
1000041e0: aa1603e1    	mov	x1, x22
1000041e4: aa1703e2    	mov	x2, x23
1000041e8: 94000575    	bl	0x1000057bc <_argon2_thread_create>
1000041ec: 350003e0    	cbnz	w0, 0x100004268 <_fill_memory_blocks+0x468>
1000041f0: 9100079c    	add	x28, x28, #0x1
1000041f4: b9401e68    	ldr	w8, [x19, #0x1c]
1000041f8: 91002318    	add	x24, x24, #0x8
1000041fc: 910062f7    	add	x23, x23, #0x18
100004200: eb08039f    	cmp	x28, x8
100004204: 54fffcc3    	b.lo	0x10000419c <_fill_memory_blocks+0x39c>
100004208: b9402269    	ldr	w9, [x19, #0x20]
10000420c: 4b090117    	sub	w23, w8, w9
100004210: 6b0802ff    	cmp	w23, w8
100004214: 54000102    	b.hs	0x100004234 <_fill_memory_blocks+0x434>
100004218: f8777a80    	ldr	x0, [x20, x23, lsl #3]
10000421c: 94000570    	bl	0x1000057dc <_argon2_thread_join>
100004220: 35000320    	cbnz	w0, 0x100004284 <_fill_memory_blocks+0x484>
100004224: 910006f7    	add	x23, x23, #0x1
100004228: b9401e68    	ldr	w8, [x19, #0x1c]
10000422c: eb0802ff    	cmp	x23, x8
100004230: 54ffff43    	b.lo	0x100004218 <_fill_memory_blocks+0x418>
100004234: 11000739    	add	w25, w25, #0x1
100004238: b9400e69    	ldr	w9, [x19, #0xc]
10000423c: 6b09033f    	cmp	w25, w9
100004240: 54ffeb03    	b.lo	0x100003fa0 <_fill_memory_blocks+0x1a0>
100004244: 52800013    	mov	w19, #0x0               ; =0
100004248: 14000010    	b	0x100004288 <_fill_memory_blocks+0x488>
10000424c: 52800013    	mov	w19, #0x0               ; =0
100004250: 14000012    	b	0x100004298 <_fill_memory_blocks+0x498>
100004254: 128002b3    	mov	w19, #-0x16             ; =-22
100004258: 14000010    	b	0x100004298 <_fill_memory_blocks+0x498>
10000425c: 128002b3    	mov	w19, #-0x16             ; =-22
100004260: aa1403f5    	mov	x21, x20
100004264: 1400000b    	b	0x100004290 <_fill_memory_blocks+0x490>
100004268: 340000fc    	cbz	w28, 0x100004284 <_fill_memory_blocks+0x484>
10000426c: 2a1c03f3    	mov	w19, w28
100004270: aa1403f6    	mov	x22, x20
100004274: f84086c0    	ldr	x0, [x22], #0x8
100004278: 94000559    	bl	0x1000057dc <_argon2_thread_join>
10000427c: f1000673    	subs	x19, x19, #0x1
100004280: 54ffffa1    	b.ne	0x100004274 <_fill_memory_blocks+0x474>
100004284: 12800413    	mov	w19, #-0x21             ; =-33
100004288: aa1403e0    	mov	x0, x20
10000428c: 94000b5a    	bl	0x100006ff4 <_strncmp+0x100006ff4>
100004290: aa1503e0    	mov	x0, x21
100004294: 94000b58    	bl	0x100006ff4 <_strncmp+0x100006ff4>
100004298: aa1303e0    	mov	x0, x19
10000429c: a9467bfd    	ldp	x29, x30, [sp, #0x60]
1000042a0: a9454ff4    	ldp	x20, x19, [sp, #0x50]
1000042a4: a94457f6    	ldp	x22, x21, [sp, #0x40]
1000042a8: a9435ff8    	ldp	x24, x23, [sp, #0x30]
1000042ac: a94267fa    	ldp	x26, x25, [sp, #0x20]
1000042b0: a9416ffc    	ldp	x28, x27, [sp, #0x10]
1000042b4: 9101c3ff    	add	sp, sp, #0x70
1000042b8: d65f03c0    	ret

00000001000042bc <_validate_inputs>:
1000042bc: b4000100    	cbz	x0, 0x1000042dc <_validate_inputs+0x20>
1000042c0: f9400008    	ldr	x8, [x0]
1000042c4: b4000108    	cbz	x8, 0x1000042e4 <_validate_inputs+0x28>
1000042c8: b9400808    	ldr	w8, [x0, #0x8]
1000042cc: 7100111f    	cmp	w8, #0x4
1000042d0: 540000e2    	b.hs	0x1000042ec <_validate_inputs+0x30>
1000042d4: 12800020    	mov	w0, #-0x2               ; =-2
1000042d8: d65f03c0    	ret
1000042dc: 12800300    	mov	w0, #-0x19              ; =-25
1000042e0: d65f03c0    	ret
1000042e4: 12800000    	mov	w0, #-0x1               ; =-1
1000042e8: d65f03c0    	ret
1000042ec: f9400808    	ldr	x8, [x0, #0x10]
1000042f0: b4000108    	cbz	x8, 0x100004310 <_validate_inputs+0x54>
1000042f4: f9401009    	ldr	x9, [x0, #0x20]
1000042f8: b9402808    	ldr	w8, [x0, #0x28]
1000042fc: b4000129    	cbz	x9, 0x100004320 <_validate_inputs+0x64>
100004300: 7100211f    	cmp	w8, #0x8
100004304: 54000182    	b.hs	0x100004334 <_validate_inputs+0x78>
100004308: 128000a0    	mov	w0, #-0x6               ; =-6
10000430c: d65f03c0    	ret
100004310: b9401808    	ldr	w8, [x0, #0x18]
100004314: 34ffff08    	cbz	w8, 0x1000042f4 <_validate_inputs+0x38>
100004318: 12800220    	mov	w0, #-0x12              ; =-18
10000431c: d65f03c0    	ret
100004320: 12800249    	mov	w9, #-0x13              ; =-19
100004324: 128000aa    	mov	w10, #-0x6              ; =-6
100004328: 7100011f    	cmp	w8, #0x0
10000432c: 1a890140    	csel	w0, w10, w9, eq
100004330: d65f03c0    	ret
100004334: f9401808    	ldr	x8, [x0, #0x30]
100004338: b4000108    	cbz	x8, 0x100004358 <_validate_inputs+0x9c>
10000433c: f9402008    	ldr	x8, [x0, #0x40]
100004340: b40001e8    	cbz	x8, 0x10000437c <_validate_inputs+0xc0>
100004344: b9405009    	ldr	w9, [x0, #0x50]
100004348: 7100213f    	cmp	w9, #0x8
10000434c: 540000e2    	b.hs	0x100004368 <_validate_inputs+0xac>
100004350: 128001a0    	mov	w0, #-0xe               ; =-14
100004354: d65f03c0    	ret
100004358: b9403808    	ldr	w8, [x0, #0x38]
10000435c: 34ffff08    	cbz	w8, 0x10000433c <_validate_inputs+0x80>
100004360: 12800260    	mov	w0, #-0x14              ; =-20
100004364: d65f03c0    	ret
100004368: b9405408    	ldr	w8, [x0, #0x54]
10000436c: 6b080d3f    	cmp	w9, w8, lsl #3
100004370: 540000e2    	b.hs	0x10000438c <_validate_inputs+0xd0>
100004374: 128001a0    	mov	w0, #-0xe               ; =-14
100004378: d65f03c0    	ret
10000437c: b9404808    	ldr	w8, [x0, #0x48]
100004380: 34fffe28    	cbz	w8, 0x100004344 <_validate_inputs+0x88>
100004384: 12800280    	mov	w0, #-0x15              ; =-21
100004388: d65f03c0    	ret
10000438c: b9404c09    	ldr	w9, [x0, #0x4c]
100004390: 340000c9    	cbz	w9, 0x1000043a8 <_validate_inputs+0xec>
100004394: 340000e8    	cbz	w8, 0x1000043b0 <_validate_inputs+0xf4>
100004398: 53187d08    	lsr	w8, w8, #24
10000439c: 340000e8    	cbz	w8, 0x1000043b8 <_validate_inputs+0xfc>
1000043a0: 12800200    	mov	w0, #-0x11              ; =-17
1000043a4: d65f03c0    	ret
1000043a8: 12800160    	mov	w0, #-0xc               ; =-12
1000043ac: d65f03c0    	ret
1000043b0: 128001e0    	mov	w0, #-0x10              ; =-16
1000043b4: d65f03c0    	ret
1000043b8: b9405808    	ldr	w8, [x0, #0x58]
1000043bc: 340000a8    	cbz	w8, 0x1000043d0 <_validate_inputs+0x114>
1000043c0: 53187d08    	lsr	w8, w8, #24
1000043c4: 340000a8    	cbz	w8, 0x1000043d8 <_validate_inputs+0x11c>
1000043c8: 12800380    	mov	w0, #-0x1d              ; =-29
1000043cc: d65f03c0    	ret
1000043d0: 12800360    	mov	w0, #-0x1c              ; =-28
1000043d4: d65f03c0    	ret
1000043d8: a9462009    	ldp	x9, x8, [x0, #0x60]
1000043dc: b4000089    	cbz	x9, 0x1000043ec <_validate_inputs+0x130>
1000043e0: b50000c8    	cbnz	x8, 0x1000043f8 <_validate_inputs+0x13c>
1000043e4: 128002c0    	mov	w0, #-0x17              ; =-23
1000043e8: d65f03c0    	ret
1000043ec: b4000068    	cbz	x8, 0x1000043f8 <_validate_inputs+0x13c>
1000043f0: 128002e0    	mov	w0, #-0x18              ; =-24
1000043f4: d65f03c0    	ret
1000043f8: 52800000    	mov	w0, #0x0                ; =0
1000043fc: d65f03c0    	ret

0000000100004400 <_fill_first_blocks>:
100004400: a9bb6ffc    	stp	x28, x27, [sp, #-0x50]!
100004404: a9015ff8    	stp	x24, x23, [sp, #0x10]
100004408: a90257f6    	stp	x22, x21, [sp, #0x20]
10000440c: a9034ff4    	stp	x20, x19, [sp, #0x30]
100004410: a9047bfd    	stp	x29, x30, [sp, #0x40]
100004414: 910103fd    	add	x29, sp, #0x40
100004418: d11043ff    	sub	sp, sp, #0x410
10000441c: 90000028    	adrp	x8, 0x100008000 <_strncmp+0x100008000>
100004420: f9401108    	ldr	x8, [x8, #0x20]
100004424: f9400108    	ldr	x8, [x8]
100004428: f81b83a8    	stur	x8, [x29, #-0x48]
10000442c: b9401c28    	ldr	w8, [x1, #0x1c]
100004430: 340016c8    	cbz	w8, 0x100004708 <_fill_first_blocks+0x308>
100004434: aa0103f3    	mov	x19, x1
100004438: aa0003f4    	mov	x20, x0
10000443c: 52800015    	mov	w21, #0x0               ; =0
100004440: 910003f6    	mov	x22, sp
100004444: 52800037    	mov	w23, #0x1               ; =1
100004448: 52800038    	mov	w24, #0x1               ; =1
10000444c: 14000045    	b	0x100004560 <_fill_first_blocks+0x160>
100004450: ad4007e0    	ldp	q0, q1, [sp]
100004454: ad410fe2    	ldp	q2, q3, [sp, #0x20]
100004458: ad000500    	stp	q0, q1, [x8]
10000445c: ad010d02    	stp	q2, q3, [x8, #0x20]
100004460: ad4207e0    	ldp	q0, q1, [sp, #0x40]
100004464: ad430fe2    	ldp	q2, q3, [sp, #0x60]
100004468: ad020500    	stp	q0, q1, [x8, #0x40]
10000446c: ad030d02    	stp	q2, q3, [x8, #0x60]
100004470: ad4407e0    	ldp	q0, q1, [sp, #0x80]
100004474: ad450fe2    	ldp	q2, q3, [sp, #0xa0]
100004478: ad040500    	stp	q0, q1, [x8, #0x80]
10000447c: ad050d02    	stp	q2, q3, [x8, #0xa0]
100004480: ad4607e0    	ldp	q0, q1, [sp, #0xc0]
100004484: ad470fe2    	ldp	q2, q3, [sp, #0xe0]
100004488: ad060500    	stp	q0, q1, [x8, #0xc0]
10000448c: ad070d02    	stp	q2, q3, [x8, #0xe0]
100004490: ad4807e0    	ldp	q0, q1, [sp, #0x100]
100004494: ad490fe2    	ldp	q2, q3, [sp, #0x120]
100004498: ad080500    	stp	q0, q1, [x8, #0x100]
10000449c: ad090d02    	stp	q2, q3, [x8, #0x120]
1000044a0: ad4a07e0    	ldp	q0, q1, [sp, #0x140]
1000044a4: ad4b0fe2    	ldp	q2, q3, [sp, #0x160]
1000044a8: ad0a0500    	stp	q0, q1, [x8, #0x140]
1000044ac: ad0b0d02    	stp	q2, q3, [x8, #0x160]
1000044b0: ad4c07e0    	ldp	q0, q1, [sp, #0x180]
1000044b4: ad4d0fe2    	ldp	q2, q3, [sp, #0x1a0]
1000044b8: ad0c0500    	stp	q0, q1, [x8, #0x180]
1000044bc: ad0d0d02    	stp	q2, q3, [x8, #0x1a0]
1000044c0: ad4e07e0    	ldp	q0, q1, [sp, #0x1c0]
1000044c4: ad4f0fe2    	ldp	q2, q3, [sp, #0x1e0]
1000044c8: ad0e0500    	stp	q0, q1, [x8, #0x1c0]
1000044cc: ad0f0d02    	stp	q2, q3, [x8, #0x1e0]
1000044d0: ad5007e0    	ldp	q0, q1, [sp, #0x200]
1000044d4: ad510fe2    	ldp	q2, q3, [sp, #0x220]
1000044d8: ad100500    	stp	q0, q1, [x8, #0x200]
1000044dc: ad110d02    	stp	q2, q3, [x8, #0x220]
1000044e0: ad5207e0    	ldp	q0, q1, [sp, #0x240]
1000044e4: ad530fe2    	ldp	q2, q3, [sp, #0x260]
1000044e8: ad120500    	stp	q0, q1, [x8, #0x240]
1000044ec: ad130d02    	stp	q2, q3, [x8, #0x260]
1000044f0: ad5407e0    	ldp	q0, q1, [sp, #0x280]
1000044f4: ad550fe2    	ldp	q2, q3, [sp, #0x2a0]
1000044f8: ad140500    	stp	q0, q1, [x8, #0x280]
1000044fc: ad150d02    	stp	q2, q3, [x8, #0x2a0]
100004500: ad5607e0    	ldp	q0, q1, [sp, #0x2c0]
100004504: ad570fe2    	ldp	q2, q3, [sp, #0x2e0]
100004508: ad160500    	stp	q0, q1, [x8, #0x2c0]
10000450c: ad170d02    	stp	q2, q3, [x8, #0x2e0]
100004510: ad5807e0    	ldp	q0, q1, [sp, #0x300]
100004514: ad590fe2    	ldp	q2, q3, [sp, #0x320]
100004518: ad180500    	stp	q0, q1, [x8, #0x300]
10000451c: ad190d02    	stp	q2, q3, [x8, #0x320]
100004520: ad5a07e0    	ldp	q0, q1, [sp, #0x340]
100004524: ad5b0fe2    	ldp	q2, q3, [sp, #0x360]
100004528: ad1a0500    	stp	q0, q1, [x8, #0x340]
10000452c: ad1b0d02    	stp	q2, q3, [x8, #0x360]
100004530: ad5c07e0    	ldp	q0, q1, [sp, #0x380]
100004534: ad5d0fe2    	ldp	q2, q3, [sp, #0x3a0]
100004538: ad1c0500    	stp	q0, q1, [x8, #0x380]
10000453c: ad1d0d02    	stp	q2, q3, [x8, #0x3a0]
100004540: ad5e07e0    	ldp	q0, q1, [sp, #0x3c0]
100004544: ad5f0fe2    	ldp	q2, q3, [sp, #0x3e0]
100004548: ad1e0500    	stp	q0, q1, [x8, #0x3c0]
10000454c: ad1f0d02    	stp	q2, q3, [x8, #0x3e0]
100004550: 110006b5    	add	w21, w21, #0x1
100004554: b9401e68    	ldr	w8, [x19, #0x1c]
100004558: 6b0802bf    	cmp	w21, w8
10000455c: 54000d62    	b.hs	0x100004708 <_fill_first_blocks+0x308>
100004560: 2908569f    	stp	wzr, w21, [x20, #0x40]
100004564: 910003e0    	mov	x0, sp
100004568: 52808001    	mov	w1, #0x400              ; =1024
10000456c: aa1403e2    	mov	x2, x20
100004570: 52800903    	mov	w3, #0x48               ; =72
100004574: 940003cf    	bl	0x1000054b0 <_blake2b_long>
100004578: f9400269    	ldr	x9, [x19]
10000457c: b9401a68    	ldr	w8, [x19, #0x18]
100004580: 1b157d0a    	mul	w10, w8, w21
100004584: 8b0a2928    	add	x8, x9, x10, lsl #10
100004588: cb16010b    	sub	x11, x8, x22
10000458c: f100fd7f    	cmp	x11, #0x3f
100004590: 54000128    	b.hi	0x1000045b4 <_fill_first_blocks+0x1b4>
100004594: d2800008    	mov	x8, #0x0                ; =0
100004598: 8b0a2929    	add	x9, x9, x10, lsl #10
10000459c: f8686aca    	ldr	x10, [x22, x8]
1000045a0: f828692a    	str	x10, [x9, x8]
1000045a4: 91002108    	add	x8, x8, #0x8
1000045a8: f110011f    	cmp	x8, #0x400
1000045ac: 54ffff81    	b.ne	0x10000459c <_fill_first_blocks+0x19c>
1000045b0: 14000041    	b	0x1000046b4 <_fill_first_blocks+0x2b4>
1000045b4: ad4007e0    	ldp	q0, q1, [sp]
1000045b8: ad410fe2    	ldp	q2, q3, [sp, #0x20]
1000045bc: ad000500    	stp	q0, q1, [x8]
1000045c0: ad010d02    	stp	q2, q3, [x8, #0x20]
1000045c4: ad4207e0    	ldp	q0, q1, [sp, #0x40]
1000045c8: ad430fe2    	ldp	q2, q3, [sp, #0x60]
1000045cc: ad020500    	stp	q0, q1, [x8, #0x40]
1000045d0: ad030d02    	stp	q2, q3, [x8, #0x60]
1000045d4: ad4407e0    	ldp	q0, q1, [sp, #0x80]
1000045d8: ad450fe2    	ldp	q2, q3, [sp, #0xa0]
1000045dc: ad040500    	stp	q0, q1, [x8, #0x80]
1000045e0: ad050d02    	stp	q2, q3, [x8, #0xa0]
1000045e4: ad4607e0    	ldp	q0, q1, [sp, #0xc0]
1000045e8: ad470fe2    	ldp	q2, q3, [sp, #0xe0]
1000045ec: ad060500    	stp	q0, q1, [x8, #0xc0]
1000045f0: ad070d02    	stp	q2, q3, [x8, #0xe0]
1000045f4: ad4807e0    	ldp	q0, q1, [sp, #0x100]
1000045f8: ad490fe2    	ldp	q2, q3, [sp, #0x120]
1000045fc: ad080500    	stp	q0, q1, [x8, #0x100]
100004600: ad090d02    	stp	q2, q3, [x8, #0x120]
100004604: ad4a07e0    	ldp	q0, q1, [sp, #0x140]
100004608: ad4b0fe2    	ldp	q2, q3, [sp, #0x160]
10000460c: ad0a0500    	stp	q0, q1, [x8, #0x140]
100004610: ad0b0d02    	stp	q2, q3, [x8, #0x160]
100004614: ad4c07e0    	ldp	q0, q1, [sp, #0x180]
100004618: ad4d0fe2    	ldp	q2, q3, [sp, #0x1a0]
10000461c: ad0c0500    	stp	q0, q1, [x8, #0x180]
100004620: ad0d0d02    	stp	q2, q3, [x8, #0x1a0]
100004624: ad4e07e0    	ldp	q0, q1, [sp, #0x1c0]
100004628: ad4f0fe2    	ldp	q2, q3, [sp, #0x1e0]
10000462c: ad0e0500    	stp	q0, q1, [x8, #0x1c0]
100004630: ad0f0d02    	stp	q2, q3, [x8, #0x1e0]
100004634: ad5007e0    	ldp	q0, q1, [sp, #0x200]
100004638: ad510fe2    	ldp	q2, q3, [sp, #0x220]
10000463c: ad100500    	stp	q0, q1, [x8, #0x200]
100004640: ad110d02    	stp	q2, q3, [x8, #0x220]
100004644: ad5207e0    	ldp	q0, q1, [sp, #0x240]
100004648: ad530fe2    	ldp	q2, q3, [sp, #0x260]
10000464c: ad120500    	stp	q0, q1, [x8, #0x240]
100004650: ad130d02    	stp	q2, q3, [x8, #0x260]
100004654: ad5407e0    	ldp	q0, q1, [sp, #0x280]
100004658: ad550fe2    	ldp	q2, q3, [sp, #0x2a0]
10000465c: ad140500    	stp	q0, q1, [x8, #0x280]
100004660: ad150d02    	stp	q2, q3, [x8, #0x2a0]
100004664: ad5607e0    	ldp	q0, q1, [sp, #0x2c0]
100004668: ad570fe2    	ldp	q2, q3, [sp, #0x2e0]
10000466c: ad160500    	stp	q0, q1, [x8, #0x2c0]
100004670: ad170d02    	stp	q2, q3, [x8, #0x2e0]
100004674: ad5807e0    	ldp	q0, q1, [sp, #0x300]
100004678: ad590fe2    	ldp	q2, q3, [sp, #0x320]
10000467c: ad180500    	stp	q0, q1, [x8, #0x300]
100004680: ad190d02    	stp	q2, q3, [x8, #0x320]
100004684: ad5a07e0    	ldp	q0, q1, [sp, #0x340]
100004688: ad5b0fe2    	ldp	q2, q3, [sp, #0x360]
10000468c: ad1a0500    	stp	q0, q1, [x8, #0x340]
100004690: ad1b0d02    	stp	q2, q3, [x8, #0x360]
100004694: ad5c07e0    	ldp	q0, q1, [sp, #0x380]
100004698: ad5d0fe2    	ldp	q2, q3, [sp, #0x3a0]
10000469c: ad1c0500    	stp	q0, q1, [x8, #0x380]
1000046a0: ad1d0d02    	stp	q2, q3, [x8, #0x3a0]
1000046a4: ad5e07e0    	ldp	q0, q1, [sp, #0x3c0]
1000046a8: ad5f0fe2    	ldp	q2, q3, [sp, #0x3e0]
1000046ac: ad1e0500    	stp	q0, q1, [x8, #0x3c0]
1000046b0: ad1f0d02    	stp	q2, q3, [x8, #0x3e0]
1000046b4: b9004297    	str	w23, [x20, #0x40]
1000046b8: 910003e0    	mov	x0, sp
1000046bc: 52808001    	mov	w1, #0x400              ; =1024
1000046c0: aa1403e2    	mov	x2, x20
1000046c4: 52800903    	mov	w3, #0x48               ; =72
1000046c8: 9400037a    	bl	0x1000054b0 <_blake2b_long>
1000046cc: f9400269    	ldr	x9, [x19]
1000046d0: b9401a68    	ldr	w8, [x19, #0x18]
1000046d4: 1b15610a    	madd	w10, w8, w21, w24
1000046d8: 8b0a2928    	add	x8, x9, x10, lsl #10
1000046dc: cb16010b    	sub	x11, x8, x22
1000046e0: f100fd7f    	cmp	x11, #0x3f
1000046e4: 54ffeb68    	b.hi	0x100004450 <_fill_first_blocks+0x50>
1000046e8: d2800008    	mov	x8, #0x0                ; =0
1000046ec: 8b0a2929    	add	x9, x9, x10, lsl #10
1000046f0: f8686aca    	ldr	x10, [x22, x8]
1000046f4: f828692a    	str	x10, [x9, x8]
1000046f8: 91002108    	add	x8, x8, #0x8
1000046fc: f110011f    	cmp	x8, #0x400
100004700: 54ffff81    	b.ne	0x1000046f0 <_fill_first_blocks+0x2f0>
100004704: 17ffff93    	b	0x100004550 <_fill_first_blocks+0x150>
100004708: 90000048    	adrp	x8, 0x10000c000 <_FLAG_clear_internal_memory>
10000470c: b9400108    	ldr	w8, [x8]
100004710: 34000088    	cbz	w8, 0x100004720 <_fill_first_blocks+0x320>
100004714: 910003e0    	mov	x0, sp
100004718: 52808001    	mov	w1, #0x400              ; =1024
10000471c: 97fffc62    	bl	0x1000038a4 <_secure_wipe_memory>
100004720: f85b83a8    	ldur	x8, [x29, #-0x48]
100004724: 90000029    	adrp	x9, 0x100008000 <_strncmp+0x100008000>
100004728: f9401129    	ldr	x9, [x9, #0x20]
10000472c: f9400129    	ldr	x9, [x9]
100004730: eb08013f    	cmp	x9, x8
100004734: 54000101    	b.ne	0x100004754 <_fill_first_blocks+0x354>
100004738: 911043ff    	add	sp, sp, #0x410
10000473c: a9447bfd    	ldp	x29, x30, [sp, #0x40]
100004740: a9434ff4    	ldp	x20, x19, [sp, #0x30]
100004744: a94257f6    	ldp	x22, x21, [sp, #0x20]
100004748: a9415ff8    	ldp	x24, x23, [sp, #0x10]
10000474c: a8c56ffc    	ldp	x28, x27, [sp], #0x50
100004750: d65f03c0    	ret
100004754: 94000a0d    	bl	0x100006f88 <_strncmp+0x100006f88>

0000000100004758 <_initial_hash>:
100004758: d104c3ff    	sub	sp, sp, #0x130
10000475c: a91057f6    	stp	x22, x21, [sp, #0x100]
100004760: a9114ff4    	stp	x20, x19, [sp, #0x110]
100004764: a9127bfd    	stp	x29, x30, [sp, #0x120]
100004768: 910483fd    	add	x29, sp, #0x120
10000476c: 90000028    	adrp	x8, 0x100008000 <_strncmp+0x100008000>
100004770: f9401108    	ldr	x8, [x8, #0x20]
100004774: f9400108    	ldr	x8, [x8]
100004778: f81d83a8    	stur	x8, [x29, #-0x28]
10000477c: b4000ce0    	cbz	x0, 0x100004918 <_initial_hash+0x1c0>
100004780: aa0103f4    	mov	x20, x1
100004784: b4000ca1    	cbz	x1, 0x100004918 <_initial_hash+0x1c0>
100004788: aa0203f5    	mov	x21, x2
10000478c: aa0003f3    	mov	x19, x0
100004790: 910023e0    	add	x0, sp, #0x8
100004794: 52800801    	mov	w1, #0x40               ; =64
100004798: 940000eb    	bl	0x100004b44 <_blake2b_init>
10000479c: b9405688    	ldr	w8, [x20, #0x54]
1000047a0: b90007e8    	str	w8, [sp, #0x4]
1000047a4: 910023e0    	add	x0, sp, #0x8
1000047a8: 910013e1    	add	x1, sp, #0x4
1000047ac: 52800082    	mov	w2, #0x4                ; =4
1000047b0: 94000169    	bl	0x100004d54 <_blake2b_update>
1000047b4: b9400a88    	ldr	w8, [x20, #0x8]
1000047b8: b90007e8    	str	w8, [sp, #0x4]
1000047bc: 910023e0    	add	x0, sp, #0x8
1000047c0: 910013e1    	add	x1, sp, #0x4
1000047c4: 52800082    	mov	w2, #0x4                ; =4
1000047c8: 94000163    	bl	0x100004d54 <_blake2b_update>
1000047cc: b9405288    	ldr	w8, [x20, #0x50]
1000047d0: b90007e8    	str	w8, [sp, #0x4]
1000047d4: 910023e0    	add	x0, sp, #0x8
1000047d8: 910013e1    	add	x1, sp, #0x4
1000047dc: 52800082    	mov	w2, #0x4                ; =4
1000047e0: 9400015d    	bl	0x100004d54 <_blake2b_update>
1000047e4: b9404e88    	ldr	w8, [x20, #0x4c]
1000047e8: b90007e8    	str	w8, [sp, #0x4]
1000047ec: 910023e0    	add	x0, sp, #0x8
1000047f0: 910013e1    	add	x1, sp, #0x4
1000047f4: 52800082    	mov	w2, #0x4                ; =4
1000047f8: 94000157    	bl	0x100004d54 <_blake2b_update>
1000047fc: b9405e88    	ldr	w8, [x20, #0x5c]
100004800: b90007e8    	str	w8, [sp, #0x4]
100004804: 910023e0    	add	x0, sp, #0x8
100004808: 910013e1    	add	x1, sp, #0x4
10000480c: 52800082    	mov	w2, #0x4                ; =4
100004810: 94000151    	bl	0x100004d54 <_blake2b_update>
100004814: b90007f5    	str	w21, [sp, #0x4]
100004818: 910023e0    	add	x0, sp, #0x8
10000481c: 910013e1    	add	x1, sp, #0x4
100004820: 52800082    	mov	w2, #0x4                ; =4
100004824: 9400014c    	bl	0x100004d54 <_blake2b_update>
100004828: b9401a88    	ldr	w8, [x20, #0x18]
10000482c: b90007e8    	str	w8, [sp, #0x4]
100004830: 910023e0    	add	x0, sp, #0x8
100004834: 910013e1    	add	x1, sp, #0x4
100004838: 52800082    	mov	w2, #0x4                ; =4
10000483c: 94000146    	bl	0x100004d54 <_blake2b_update>
100004840: f9400a81    	ldr	x1, [x20, #0x10]
100004844: b4000141    	cbz	x1, 0x10000486c <_initial_hash+0x114>
100004848: b9401a82    	ldr	w2, [x20, #0x18]
10000484c: 910023e0    	add	x0, sp, #0x8
100004850: 94000141    	bl	0x100004d54 <_blake2b_update>
100004854: 3941c288    	ldrb	w8, [x20, #0x70]
100004858: 360000a8    	tbz	w8, #0x0, 0x10000486c <_initial_hash+0x114>
10000485c: f9400a80    	ldr	x0, [x20, #0x10]
100004860: b9401a81    	ldr	w1, [x20, #0x18]
100004864: 97fffc10    	bl	0x1000038a4 <_secure_wipe_memory>
100004868: b9001a9f    	str	wzr, [x20, #0x18]
10000486c: b9402a88    	ldr	w8, [x20, #0x28]
100004870: b90007e8    	str	w8, [sp, #0x4]
100004874: 910023e0    	add	x0, sp, #0x8
100004878: 910013e1    	add	x1, sp, #0x4
10000487c: 52800082    	mov	w2, #0x4                ; =4
100004880: 94000135    	bl	0x100004d54 <_blake2b_update>
100004884: f9401281    	ldr	x1, [x20, #0x20]
100004888: b4000081    	cbz	x1, 0x100004898 <_initial_hash+0x140>
10000488c: b9402a82    	ldr	w2, [x20, #0x28]
100004890: 910023e0    	add	x0, sp, #0x8
100004894: 94000130    	bl	0x100004d54 <_blake2b_update>
100004898: b9403a88    	ldr	w8, [x20, #0x38]
10000489c: b90007e8    	str	w8, [sp, #0x4]
1000048a0: 910023e0    	add	x0, sp, #0x8
1000048a4: 910013e1    	add	x1, sp, #0x4
1000048a8: 52800082    	mov	w2, #0x4                ; =4
1000048ac: 9400012a    	bl	0x100004d54 <_blake2b_update>
1000048b0: f9401a81    	ldr	x1, [x20, #0x30]
1000048b4: b4000141    	cbz	x1, 0x1000048dc <_initial_hash+0x184>
1000048b8: b9403a82    	ldr	w2, [x20, #0x38]
1000048bc: 910023e0    	add	x0, sp, #0x8
1000048c0: 94000125    	bl	0x100004d54 <_blake2b_update>
1000048c4: 3941c288    	ldrb	w8, [x20, #0x70]
1000048c8: 360800a8    	tbz	w8, #0x1, 0x1000048dc <_initial_hash+0x184>
1000048cc: f9401a80    	ldr	x0, [x20, #0x30]
1000048d0: b9403a81    	ldr	w1, [x20, #0x38]
1000048d4: 97fffbf4    	bl	0x1000038a4 <_secure_wipe_memory>
1000048d8: b9003a9f    	str	wzr, [x20, #0x38]
1000048dc: b9404a88    	ldr	w8, [x20, #0x48]
1000048e0: b90007e8    	str	w8, [sp, #0x4]
1000048e4: 910023e0    	add	x0, sp, #0x8
1000048e8: 910013e1    	add	x1, sp, #0x4
1000048ec: 52800082    	mov	w2, #0x4                ; =4
1000048f0: 94000119    	bl	0x100004d54 <_blake2b_update>
1000048f4: f9402281    	ldr	x1, [x20, #0x40]
1000048f8: b4000081    	cbz	x1, 0x100004908 <_initial_hash+0x1b0>
1000048fc: b9404a82    	ldr	w2, [x20, #0x48]
100004900: 910023e0    	add	x0, sp, #0x8
100004904: 94000114    	bl	0x100004d54 <_blake2b_update>
100004908: 910023e0    	add	x0, sp, #0x8
10000490c: aa1303e1    	mov	x1, x19
100004910: 52800802    	mov	w2, #0x40               ; =64
100004914: 9400024d    	bl	0x100005248 <_blake2b_final>
100004918: f85d83a8    	ldur	x8, [x29, #-0x28]
10000491c: 90000029    	adrp	x9, 0x100008000 <_strncmp+0x100008000>
100004920: f9401129    	ldr	x9, [x9, #0x20]
100004924: f9400129    	ldr	x9, [x9]
100004928: eb08013f    	cmp	x9, x8
10000492c: 540000c1    	b.ne	0x100004944 <_initial_hash+0x1ec>
100004930: a9527bfd    	ldp	x29, x30, [sp, #0x120]
100004934: a9514ff4    	ldp	x20, x19, [sp, #0x110]
100004938: a95057f6    	ldp	x22, x21, [sp, #0x100]
10000493c: 9104c3ff    	add	sp, sp, #0x130
100004940: d65f03c0    	ret
100004944: 94000991    	bl	0x100006f88 <_strncmp+0x100006f88>

0000000100004948 <_initialize>:
100004948: d10203ff    	sub	sp, sp, #0x80
10000494c: a90557f6    	stp	x22, x21, [sp, #0x50]
100004950: a9064ff4    	stp	x20, x19, [sp, #0x60]
100004954: a9077bfd    	stp	x29, x30, [sp, #0x70]
100004958: 9101c3fd    	add	x29, sp, #0x70
10000495c: aa0003f3    	mov	x19, x0
100004960: 90000028    	adrp	x8, 0x100008000 <_strncmp+0x100008000>
100004964: f9401108    	ldr	x8, [x8, #0x20]
100004968: f9400108    	ldr	x8, [x8]
10000496c: f81d83a8    	stur	x8, [x29, #-0x28]
100004970: 12800300    	mov	w0, #-0x19              ; =-25
100004974: b4000413    	cbz	x19, 0x1000049f4 <_initialize+0xac>
100004978: aa0103f4    	mov	x20, x1
10000497c: b40003c1    	cbz	x1, 0x1000049f4 <_initialize+0xac>
100004980: f9001a74    	str	x20, [x19, #0x30]
100004984: b9401268    	ldr	w8, [x19, #0x10]
100004988: d376d501    	lsl	x1, x8, #10
10000498c: f9403288    	ldr	x8, [x20, #0x60]
100004990: b4000488    	cbz	x8, 0x100004a20 <_initialize+0xd8>
100004994: aa1303e0    	mov	x0, x19
100004998: d63f0100    	blr	x8
10000499c: f9400260    	ldr	x0, [x19]
1000049a0: b4000480    	cbz	x0, 0x100004a30 <_initialize+0xe8>
1000049a4: b9402662    	ldr	w2, [x19, #0x24]
1000049a8: 910003f5    	mov	x21, sp
1000049ac: 910003e0    	mov	x0, sp
1000049b0: aa1403e1    	mov	x1, x20
1000049b4: 97ffff69    	bl	0x100004758 <_initial_hash>
1000049b8: 90000054    	adrp	x20, 0x10000c000 <_FLAG_clear_internal_memory>
1000049bc: b9400288    	ldr	w8, [x20]
1000049c0: 34000088    	cbz	w8, 0x1000049d0 <_initialize+0x88>
1000049c4: 910102a0    	add	x0, x21, #0x40
1000049c8: 52800101    	mov	w1, #0x8                ; =8
1000049cc: 97fffbb6    	bl	0x1000038a4 <_secure_wipe_memory>
1000049d0: 910003e0    	mov	x0, sp
1000049d4: aa1303e1    	mov	x1, x19
1000049d8: 97fffe8a    	bl	0x100004400 <_fill_first_blocks>
1000049dc: b9400288    	ldr	w8, [x20]
1000049e0: 34000088    	cbz	w8, 0x1000049f0 <_initialize+0xa8>
1000049e4: 910003e0    	mov	x0, sp
1000049e8: 52800901    	mov	w1, #0x48               ; =72
1000049ec: 97fffbae    	bl	0x1000038a4 <_secure_wipe_memory>
1000049f0: 52800000    	mov	w0, #0x0                ; =0
1000049f4: f85d83a8    	ldur	x8, [x29, #-0x28]
1000049f8: 90000029    	adrp	x9, 0x100008000 <_strncmp+0x100008000>
1000049fc: f9401129    	ldr	x9, [x9, #0x20]
100004a00: f9400129    	ldr	x9, [x9]
100004a04: eb08013f    	cmp	x9, x8
100004a08: 54000221    	b.ne	0x100004a4c <_initialize+0x104>
100004a0c: a9477bfd    	ldp	x29, x30, [sp, #0x70]
100004a10: a9464ff4    	ldp	x20, x19, [sp, #0x60]
100004a14: a94557f6    	ldp	x22, x21, [sp, #0x50]
100004a18: 910203ff    	add	sp, sp, #0x80
100004a1c: d65f03c0    	ret
100004a20: aa0103e0    	mov	x0, x1
100004a24: 94000977    	bl	0x100007000 <_strncmp+0x100007000>
100004a28: f9000260    	str	x0, [x19]
100004a2c: b5fffbc0    	cbnz	x0, 0x1000049a4 <_initialize+0x5c>
100004a30: 128002a0    	mov	w0, #-0x16              ; =-22
100004a34: f85d83a8    	ldur	x8, [x29, #-0x28]
100004a38: 90000029    	adrp	x9, 0x100008000 <_strncmp+0x100008000>
100004a3c: f9401129    	ldr	x9, [x9, #0x20]
100004a40: f9400129    	ldr	x9, [x9]
100004a44: eb08013f    	cmp	x9, x8
100004a48: 54fffe20    	b.eq	0x100004a0c <_initialize+0xc4>
100004a4c: 9400094f    	bl	0x100006f88 <_strncmp+0x100006f88>

0000000100004a50 <_fill_segment_thr>:
100004a50: a9bf7bfd    	stp	x29, x30, [sp, #-0x10]!
100004a54: 910003fd    	mov	x29, sp
100004a58: a9400408    	ldp	x8, x1, [x0]
100004a5c: f9400802    	ldr	x2, [x0, #0x10]
100004a60: aa0803e0    	mov	x0, x8
100004a64: 940006bf    	bl	0x100006560 <_fill_segment>
100004a68: 9400035f    	bl	0x1000057e4 <_argon2_thread_exit>
100004a6c: d2800000    	mov	x0, #0x0                ; =0
100004a70: a8c17bfd    	ldp	x29, x30, [sp], #0x10
100004a74: d65f03c0    	ret

0000000100004a78 <_blake2b_init_param>:
100004a78: aa0003e8    	mov	x8, x0
100004a7c: 12800000    	mov	w0, #-0x1               ; =-1
100004a80: b4000608    	cbz	x8, 0x100004b40 <_blake2b_init_param+0xc8>
100004a84: b40005e1    	cbz	x1, 0x100004b40 <_blake2b_init_param+0xc8>
100004a88: 52800000    	mov	w0, #0x0                ; =0
100004a8c: 6f00e400    	movi.2d	v0, #0000000000000000
100004a90: ad068100    	stp	q0, q0, [x8, #0xd0]
100004a94: ad058100    	stp	q0, q0, [x8, #0xb0]
100004a98: ad048100    	stp	q0, q0, [x8, #0x90]
100004a9c: ad038100    	stp	q0, q0, [x8, #0x70]
100004aa0: ad028100    	stp	q0, q0, [x8, #0x50]
100004aa4: ad018100    	stp	q0, q0, [x8, #0x30]
100004aa8: ad008100    	stp	q0, q0, [x8, #0x10]
100004aac: 3d800100    	str	q0, [x8]
100004ab0: f0000009    	adrp	x9, 0x100007000 <_strncmp+0x100007000>
100004ab4: 91032129    	add	x9, x9, #0xc8
100004ab8: ad400520    	ldp	q0, q1, [x9]
100004abc: ad410d22    	ldp	q2, q3, [x9, #0x20]
100004ac0: ad010d02    	stp	q2, q3, [x8, #0x20]
100004ac4: ad000500    	stp	q0, q1, [x8]
100004ac8: f9400029    	ldr	x9, [x1]
100004acc: a9402d0a    	ldp	x10, x11, [x8]
100004ad0: ca09014a    	eor	x10, x10, x9
100004ad4: f900010a    	str	x10, [x8]
100004ad8: f940042a    	ldr	x10, [x1, #0x8]
100004adc: ca0a016a    	eor	x10, x11, x10
100004ae0: f900050a    	str	x10, [x8, #0x8]
100004ae4: f940082a    	ldr	x10, [x1, #0x10]
100004ae8: a941310b    	ldp	x11, x12, [x8, #0x10]
100004aec: ca0a016a    	eor	x10, x11, x10
100004af0: f900090a    	str	x10, [x8, #0x10]
100004af4: f9400c2a    	ldr	x10, [x1, #0x18]
100004af8: ca0a018a    	eor	x10, x12, x10
100004afc: f9000d0a    	str	x10, [x8, #0x18]
100004b00: f940102a    	ldr	x10, [x1, #0x20]
100004b04: a942310b    	ldp	x11, x12, [x8, #0x20]
100004b08: ca0a016a    	eor	x10, x11, x10
100004b0c: f900110a    	str	x10, [x8, #0x20]
100004b10: f940142a    	ldr	x10, [x1, #0x28]
100004b14: ca0a018a    	eor	x10, x12, x10
100004b18: f900150a    	str	x10, [x8, #0x28]
100004b1c: f940182a    	ldr	x10, [x1, #0x30]
100004b20: a943310b    	ldp	x11, x12, [x8, #0x30]
100004b24: ca0a016a    	eor	x10, x11, x10
100004b28: f900190a    	str	x10, [x8, #0x30]
100004b2c: f9401c2a    	ldr	x10, [x1, #0x38]
100004b30: ca0a018a    	eor	x10, x12, x10
100004b34: f9001d0a    	str	x10, [x8, #0x38]
100004b38: 12001d29    	and	w9, w9, #0xff
100004b3c: b900e509    	str	w9, [x8, #0xe4]
100004b40: d65f03c0    	ret

0000000100004b44 <_blake2b_init>:
100004b44: b40002a0    	cbz	x0, 0x100004b98 <_blake2b_init+0x54>
100004b48: a9be4ff4    	stp	x20, x19, [sp, #-0x20]!
100004b4c: a9017bfd    	stp	x29, x30, [sp, #0x10]
100004b50: 910043fd    	add	x29, sp, #0x10
100004b54: aa0003f3    	mov	x19, x0
100004b58: d1010428    	sub	x8, x1, #0x41
100004b5c: b101051f    	cmn	x8, #0x41
100004b60: 54000208    	b.hi	0x100004ba0 <_blake2b_init+0x5c>
100004b64: aa1303e0    	mov	x0, x19
100004b68: 52801e01    	mov	w1, #0xf0               ; =240
100004b6c: 97fffb48    	bl	0x10000388c <_clear_internal_memory>
100004b70: 3943a268    	ldrb	w8, [x19, #0xe8]
100004b74: 34000068    	cbz	w8, 0x100004b80 <_blake2b_init+0x3c>
100004b78: 92800008    	mov	x8, #-0x1               ; =-1
100004b7c: f9002e68    	str	x8, [x19, #0x58]
100004b80: 92800008    	mov	x8, #-0x1               ; =-1
100004b84: f9002a68    	str	x8, [x19, #0x50]
100004b88: 12800000    	mov	w0, #-0x1               ; =-1
100004b8c: a9417bfd    	ldp	x29, x30, [sp, #0x10]
100004b90: a8c24ff4    	ldp	x20, x19, [sp], #0x20
100004b94: d65f03c0    	ret
100004b98: 12800000    	mov	w0, #-0x1               ; =-1
100004b9c: d65f03c0    	ret
100004ba0: 52800000    	mov	w0, #0x0                ; =0
100004ba4: 52a02028    	mov	w8, #0x1010000          ; =16842752
100004ba8: aa080028    	orr	x8, x1, x8
100004bac: 6f00e400    	movi.2d	v0, #0000000000000000
100004bb0: ad000260    	stp	q0, q0, [x19]
100004bb4: f0000009    	adrp	x9, 0x100007000 <_strncmp+0x100007000>
100004bb8: 91032129    	add	x9, x9, #0xc8
100004bbc: ad400522    	ldp	q2, q1, [x9]
100004bc0: 3d800262    	str	q2, [x19]
100004bc4: ad410d22    	ldp	q2, q3, [x9, #0x20]
100004bc8: f9400269    	ldr	x9, [x19]
100004bcc: ca080128    	eor	x8, x9, x8
100004bd0: ad068260    	stp	q0, q0, [x19, #0xd0]
100004bd4: ad058260    	stp	q0, q0, [x19, #0xb0]
100004bd8: ad048260    	stp	q0, q0, [x19, #0x90]
100004bdc: ad038260    	stp	q0, q0, [x19, #0x70]
100004be0: ad028260    	stp	q0, q0, [x19, #0x50]
100004be4: ad018260    	stp	q0, q0, [x19, #0x30]
100004be8: ad010e60    	stp	q0, q3, [x19, #0x20]
100004bec: ad008a61    	stp	q1, q2, [x19, #0x10]
100004bf0: f9000268    	str	x8, [x19]
100004bf4: b900e661    	str	w1, [x19, #0xe4]
100004bf8: a9417bfd    	ldp	x29, x30, [sp, #0x10]
100004bfc: a8c24ff4    	ldp	x20, x19, [sp], #0x20
100004c00: d65f03c0    	ret

0000000100004c04 <_blake2b_init_key>:
100004c04: d102c3ff    	sub	sp, sp, #0xb0
100004c08: a9094ff4    	stp	x20, x19, [sp, #0x90]
100004c0c: a90a7bfd    	stp	x29, x30, [sp, #0xa0]
100004c10: 910283fd    	add	x29, sp, #0xa0
100004c14: 90000028    	adrp	x8, 0x100008000 <_strncmp+0x100008000>
100004c18: f9401108    	ldr	x8, [x8, #0x20]
100004c1c: f9400108    	ldr	x8, [x8]
100004c20: f81e83a8    	stur	x8, [x29, #-0x18]
100004c24: b40001c0    	cbz	x0, 0x100004c5c <_blake2b_init_key+0x58>
100004c28: aa0003f3    	mov	x19, x0
100004c2c: d1010428    	sub	x8, x1, #0x41
100004c30: b101051f    	cmn	x8, #0x41
100004c34: 540002a8    	b.hi	0x100004c88 <_blake2b_init_key+0x84>
100004c38: aa1303e0    	mov	x0, x19
100004c3c: 52801e01    	mov	w1, #0xf0               ; =240
100004c40: 97fffb13    	bl	0x10000388c <_clear_internal_memory>
100004c44: 3943a268    	ldrb	w8, [x19, #0xe8]
100004c48: 34000068    	cbz	w8, 0x100004c54 <_blake2b_init_key+0x50>
100004c4c: 92800008    	mov	x8, #-0x1               ; =-1
100004c50: f9002e68    	str	x8, [x19, #0x58]
100004c54: 92800008    	mov	x8, #-0x1               ; =-1
100004c58: f9002a68    	str	x8, [x19, #0x50]
100004c5c: 12800000    	mov	w0, #-0x1               ; =-1
100004c60: f85e83a8    	ldur	x8, [x29, #-0x18]
100004c64: 90000029    	adrp	x9, 0x100008000 <_strncmp+0x100008000>
100004c68: f9401129    	ldr	x9, [x9, #0x20]
100004c6c: f9400129    	ldr	x9, [x9]
100004c70: eb08013f    	cmp	x9, x8
100004c74: 540006e1    	b.ne	0x100004d50 <_blake2b_init_key+0x14c>
100004c78: a94a7bfd    	ldp	x29, x30, [sp, #0xa0]
100004c7c: a9494ff4    	ldp	x20, x19, [sp, #0x90]
100004c80: 9102c3ff    	add	sp, sp, #0xb0
100004c84: d65f03c0    	ret
100004c88: b4fffd82    	cbz	x2, 0x100004c38 <_blake2b_init_key+0x34>
100004c8c: d1010468    	sub	x8, x3, #0x41
100004c90: b101051f    	cmn	x8, #0x41
100004c94: 54fffd29    	b.ls	0x100004c38 <_blake2b_init_key+0x34>
100004c98: 6f00e400    	movi.2d	v0, #0000000000000000
100004c9c: ad068260    	stp	q0, q0, [x19, #0xd0]
100004ca0: d3781c68    	ubfiz	x8, x3, #8, #8
100004ca4: aa010108    	orr	x8, x8, x1
100004ca8: 52a02029    	mov	w9, #0x1010000          ; =16842752
100004cac: ad058260    	stp	q0, q0, [x19, #0xb0]
100004cb0: aa090108    	orr	x8, x8, x9
100004cb4: ad048260    	stp	q0, q0, [x19, #0x90]
100004cb8: ad038260    	stp	q0, q0, [x19, #0x70]
100004cbc: ad028260    	stp	q0, q0, [x19, #0x50]
100004cc0: ad018260    	stp	q0, q0, [x19, #0x30]
100004cc4: ad008260    	stp	q0, q0, [x19, #0x10]
100004cc8: 3d800260    	str	q0, [x19]
100004ccc: f0000009    	adrp	x9, 0x100007000 <_strncmp+0x100007000>
100004cd0: 91032129    	add	x9, x9, #0xc8
100004cd4: ad410921    	ldp	q1, q2, [x9, #0x20]
100004cd8: ad400d24    	ldp	q4, q3, [x9]
100004cdc: ad010a61    	stp	q1, q2, [x19, #0x20]
100004ce0: ad000e64    	stp	q4, q3, [x19]
100004ce4: f9400269    	ldr	x9, [x19]
100004ce8: ca080128    	eor	x8, x9, x8
100004cec: f9000268    	str	x8, [x19]
100004cf0: b900e661    	str	w1, [x19, #0xe4]
100004cf4: ad0303e0    	stp	q0, q0, [sp, #0x60]
100004cf8: ad0203e0    	stp	q0, q0, [sp, #0x40]
100004cfc: ad0103e0    	stp	q0, q0, [sp, #0x20]
100004d00: ad0003e0    	stp	q0, q0, [sp]
100004d04: 910003e0    	mov	x0, sp
100004d08: aa0203e1    	mov	x1, x2
100004d0c: aa0303e2    	mov	x2, x3
100004d10: 52801003    	mov	w3, #0x80               ; =128
100004d14: 94000894    	bl	0x100006f64 <_strncmp+0x100006f64>
100004d18: 910003e1    	mov	x1, sp
100004d1c: aa1303e0    	mov	x0, x19
100004d20: 52801002    	mov	w2, #0x80               ; =128
100004d24: 9400000c    	bl	0x100004d54 <_blake2b_update>
100004d28: 910003e0    	mov	x0, sp
100004d2c: 52801001    	mov	w1, #0x80               ; =128
100004d30: 97fffad7    	bl	0x10000388c <_clear_internal_memory>
100004d34: 52800000    	mov	w0, #0x0                ; =0
100004d38: f85e83a8    	ldur	x8, [x29, #-0x18]
100004d3c: 90000029    	adrp	x9, 0x100008000 <_strncmp+0x100008000>
100004d40: f9401129    	ldr	x9, [x9, #0x20]
100004d44: f9400129    	ldr	x9, [x9]
100004d48: eb08013f    	cmp	x9, x8
100004d4c: 54fff960    	b.eq	0x100004c78 <_blake2b_init_key+0x74>
100004d50: 9400088e    	bl	0x100006f88 <_strncmp+0x100006f88>

0000000100004d54 <_blake2b_update>:
100004d54: b4000242    	cbz	x2, 0x100004d9c <_blake2b_update+0x48>
100004d58: a9bc5ff8    	stp	x24, x23, [sp, #-0x40]!
100004d5c: a90157f6    	stp	x22, x21, [sp, #0x10]
100004d60: a9024ff4    	stp	x20, x19, [sp, #0x20]
100004d64: a9037bfd    	stp	x29, x30, [sp, #0x30]
100004d68: 9100c3fd    	add	x29, sp, #0x30
100004d6c: aa0003f4    	mov	x20, x0
100004d70: 12800000    	mov	w0, #-0x1               ; =-1
100004d74: b40000b4    	cbz	x20, 0x100004d88 <_blake2b_update+0x34>
100004d78: aa0103f5    	mov	x21, x1
100004d7c: b4000061    	cbz	x1, 0x100004d88 <_blake2b_update+0x34>
100004d80: f9402a88    	ldr	x8, [x20, #0x50]
100004d84: b4000108    	cbz	x8, 0x100004da4 <_blake2b_update+0x50>
100004d88: a9437bfd    	ldp	x29, x30, [sp, #0x30]
100004d8c: a9424ff4    	ldp	x20, x19, [sp, #0x20]
100004d90: a94157f6    	ldp	x22, x21, [sp, #0x10]
100004d94: a8c45ff8    	ldp	x24, x23, [sp], #0x40
100004d98: d65f03c0    	ret
100004d9c: 52800000    	mov	w0, #0x0                ; =0
100004da0: d65f03c0    	ret
100004da4: aa0203f3    	mov	x19, x2
100004da8: b940e288    	ldr	w8, [x20, #0xe0]
100004dac: 8b020109    	add	x9, x8, x2
100004db0: f102053f    	cmp	x9, #0x81
100004db4: 54000483    	b.lo	0x100004e44 <_blake2b_update+0xf0>
100004db8: 52801009    	mov	w9, #0x80               ; =128
100004dbc: cb080136    	sub	x22, x9, x8
100004dc0: 91018297    	add	x23, x20, #0x60
100004dc4: 8b0802e0    	add	x0, x23, x8
100004dc8: aa1503e1    	mov	x1, x21
100004dcc: aa1603e2    	mov	x2, x22
100004dd0: 9400088f    	bl	0x10000700c <_strncmp+0x10000700c>
100004dd4: a9442688    	ldp	x8, x9, [x20, #0x40]
100004dd8: 9102010a    	add	x10, x8, #0x80
100004ddc: b102051f    	cmn	x8, #0x81
100004de0: 9a899528    	cinc	x8, x9, hi
100004de4: a904228a    	stp	x10, x8, [x20, #0x40]
100004de8: aa1403e0    	mov	x0, x20
100004dec: aa1703e1    	mov	x1, x23
100004df0: 94000023    	bl	0x100004e7c <_blake2b_compress>
100004df4: b900e29f    	str	wzr, [x20, #0xe0]
100004df8: cb160273    	sub	x19, x19, x22
100004dfc: 8b1602b5    	add	x21, x21, x22
100004e00: f102067f    	cmp	x19, #0x81
100004e04: 540001e3    	b.lo	0x100004e40 <_blake2b_update+0xec>
100004e08: a9442688    	ldp	x8, x9, [x20, #0x40]
100004e0c: 9102010a    	add	x10, x8, #0x80
100004e10: b102051f    	cmn	x8, #0x81
100004e14: 9a899528    	cinc	x8, x9, hi
100004e18: a904228a    	stp	x10, x8, [x20, #0x40]
100004e1c: aa1403e0    	mov	x0, x20
100004e20: aa1503e1    	mov	x1, x21
100004e24: 94000016    	bl	0x100004e7c <_blake2b_compress>
100004e28: d1020273    	sub	x19, x19, #0x80
100004e2c: 910202b5    	add	x21, x21, #0x80
100004e30: f102027f    	cmp	x19, #0x80
100004e34: 54fffea8    	b.hi	0x100004e08 <_blake2b_update+0xb4>
100004e38: b940e288    	ldr	w8, [x20, #0xe0]
100004e3c: 14000002    	b	0x100004e44 <_blake2b_update+0xf0>
100004e40: 52800008    	mov	w8, #0x0                ; =0
100004e44: 8b284288    	add	x8, x20, w8, uxtw
100004e48: 91018100    	add	x0, x8, #0x60
100004e4c: aa1503e1    	mov	x1, x21
100004e50: aa1303e2    	mov	x2, x19
100004e54: 9400086e    	bl	0x10000700c <_strncmp+0x10000700c>
100004e58: 52800000    	mov	w0, #0x0                ; =0
100004e5c: b940e288    	ldr	w8, [x20, #0xe0]
100004e60: 0b130108    	add	w8, w8, w19
100004e64: b900e288    	str	w8, [x20, #0xe0]
100004e68: a9437bfd    	ldp	x29, x30, [sp, #0x30]
100004e6c: a9424ff4    	ldp	x20, x19, [sp, #0x20]
100004e70: a94157f6    	ldp	x22, x21, [sp, #0x10]
100004e74: a8c45ff8    	ldp	x24, x23, [sp], #0x40
100004e78: d65f03c0    	ret

0000000100004e7c <_blake2b_compress>:
100004e7c: d10383ff    	sub	sp, sp, #0xe0
100004e80: a90967fa    	stp	x26, x25, [sp, #0x90]
100004e84: a90a5ff8    	stp	x24, x23, [sp, #0xa0]
100004e88: a90b57f6    	stp	x22, x21, [sp, #0xb0]
100004e8c: a90c4ff4    	stp	x20, x19, [sp, #0xc0]
100004e90: a90d7bfd    	stp	x29, x30, [sp, #0xd0]
100004e94: 910343fd    	add	x29, sp, #0xd0
100004e98: d2800008    	mov	x8, #0x0                ; =0
100004e9c: 90000029    	adrp	x9, 0x100008000 <_strncmp+0x100008000>
100004ea0: f9401129    	ldr	x9, [x9, #0x20]
100004ea4: f9400129    	ldr	x9, [x9]
100004ea8: f81b83a9    	stur	x9, [x29, #-0x48]
100004eac: ad420420    	ldp	q0, q1, [x1, #0x40]
100004eb0: ad0207e0    	stp	q0, q1, [sp, #0x40]
100004eb4: ad430420    	ldp	q0, q1, [x1, #0x60]
100004eb8: ad0307e0    	stp	q0, q1, [sp, #0x60]
100004ebc: ad400420    	ldp	q0, q1, [x1]
100004ec0: ad0007e0    	stp	q0, q1, [sp]
100004ec4: ad410420    	ldp	q0, q1, [x1, #0x20]
100004ec8: ad0107e0    	stp	q0, q1, [sp, #0x20]
100004ecc: a940380c    	ldp	x12, x14, [x0]
100004ed0: d2905a29    	mov	x9, #0x82d1             ; =33489
100004ed4: f2b5bcc9    	movk	x9, #0xade6, lsl #16
100004ed8: f2ca4fe9    	movk	x9, #0x527f, lsl #32
100004edc: f2ea21c9    	movk	x9, #0x510e, lsl #48
100004ee0: a9442c0a    	ldp	x10, x11, [x0, #0x40]
100004ee4: ca09014f    	eor	x15, x10, x9
100004ee8: d28d83e9    	mov	x9, #0x6c1f             ; =27679
100004eec: f2a567c9    	movk	x9, #0x2b3e, lsl #16
100004ef0: f2cd1189    	movk	x9, #0x688c, lsl #32
100004ef4: f2f360a9    	movk	x9, #0x9b05, lsl #48
100004ef8: ca090161    	eor	x1, x11, x9
100004efc: d297ad69    	mov	x9, #0xbd6b             ; =48491
100004f00: f2bf6829    	movk	x9, #0xfb41, lsl #16
100004f04: f2db3569    	movk	x9, #0xd9ab, lsl #32
100004f08: f2e3f069    	movk	x9, #0x1f83, lsl #48
100004f0c: a9452c0a    	ldp	x10, x11, [x0, #0x50]
100004f10: ca090144    	eor	x4, x10, x9
100004f14: a9410c02    	ldp	x2, x3, [x0, #0x10]
100004f18: d2842f29    	mov	x9, #0x2179             ; =8569
100004f1c: f2a26fc9    	movk	x9, #0x137e, lsl #16
100004f20: f2d9a329    	movk	x9, #0xcd19, lsl #32
100004f24: f2eb7c09    	movk	x9, #0x5be0, lsl #48
100004f28: ca09016b    	eor	x11, x11, x9
100004f2c: d286de30    	mov	x16, #0x36f1            ; =14065
100004f30: f2abe3b0    	movk	x16, #0x5f1d, lsl #16
100004f34: f2dea750    	movk	x16, #0xf53a, lsl #32
100004f38: f2f4a9f0    	movk	x16, #0xa54f, lsl #48
100004f3c: d29f0565    	mov	x5, #0xf82b             ; =63531
100004f40: f2bfd285    	movk	x5, #0xfe94, lsl #16
100004f44: f2de6e45    	movk	x5, #0xf372, lsl #32
100004f48: f2e78dc5    	movk	x5, #0x3c6e, lsl #48
100004f4c: a9421813    	ldp	x19, x6, [x0, #0x20]
100004f50: d294e774    	mov	x20, #0xa73b            ; =42811
100004f54: f2b09954    	movk	x20, #0x84ca, lsl #16
100004f58: f2d5d0b4    	movk	x20, #0xae85, lsl #32
100004f5c: f2f76cf4    	movk	x20, #0xbb67, lsl #48
100004f60: d2992115    	mov	x21, #0xc908            ; =51464
100004f64: f2be7795    	movk	x21, #0xf3bc, lsl #16
100004f68: f2dcccf5    	movk	x21, #0xe667, lsl #32
100004f6c: f2ed4135    	movk	x21, #0x6a09, lsl #48
100004f70: f0000009    	adrp	x9, 0x100007000 <_strncmp+0x100007000>
100004f74: 91042129    	add	x9, x9, #0x108
100004f78: 910003ea    	mov	x10, sp
100004f7c: a9434407    	ldp	x7, x17, [x0, #0x30]
100004f80: 8b08012d    	add	x13, x9, x8
100004f84: 29405db6    	ldp	w22, w23, [x13]
100004f88: f8767956    	ldr	x22, [x10, x22, lsl #3]
100004f8c: f8777957    	ldr	x23, [x10, x23, lsl #3]
100004f90: 294165b8    	ldp	w24, w25, [x13, #0x8]
100004f94: 8b0c026c    	add	x12, x19, x12
100004f98: 8b16018c    	add	x12, x12, x22
100004f9c: f8787956    	ldr	x22, [x10, x24, lsl #3]
100004fa0: 8b0e00ce    	add	x14, x6, x14
100004fa4: 8b1601ce    	add	x14, x14, x22
100004fa8: 294261b6    	ldp	w22, w24, [x13, #0x10]
100004fac: ca0c01ef    	eor	x15, x15, x12
100004fb0: f8767956    	ldr	x22, [x10, x22, lsl #3]
100004fb4: 8b0200e2    	add	x2, x7, x2
100004fb8: 93cf81ef    	ror	x15, x15, #0x20
100004fbc: 8b160042    	add	x2, x2, x22
100004fc0: 8b0f02b5    	add	x21, x21, x15
100004fc4: ca1302b3    	eor	x19, x21, x19
100004fc8: ca0e0021    	eor	x1, x1, x14
100004fcc: 93d36273    	ror	x19, x19, #0x18
100004fd0: 93c18021    	ror	x1, x1, #0x20
100004fd4: 8b010294    	add	x20, x20, x1
100004fd8: ca060286    	eor	x6, x20, x6
100004fdc: 93c660c6    	ror	x6, x6, #0x18
100004fe0: f8797956    	ldr	x22, [x10, x25, lsl #3]
100004fe4: ca020084    	eor	x4, x4, x2
100004fe8: 93c48084    	ror	x4, x4, #0x20
100004fec: 8b1601ce    	add	x14, x14, x22
100004ff0: 8b0400a5    	add	x5, x5, x4
100004ff4: ca0700a7    	eor	x7, x5, x7
100004ff8: 93c760e7    	ror	x7, x7, #0x18
100004ffc: 8b17018c    	add	x12, x12, x23
100005000: 8b0c026c    	add	x12, x19, x12
100005004: 8b0e00ce    	add	x14, x6, x14
100005008: f8787956    	ldr	x22, [x10, x24, lsl #3]
10000500c: 294361b7    	ldp	w23, w24, [x13, #0x18]
100005010: ca0f018f    	eor	x15, x12, x15
100005014: f8777957    	ldr	x23, [x10, x23, lsl #3]
100005018: ca0101c1    	eor	x1, x14, x1
10000501c: 8b160042    	add	x2, x2, x22
100005020: 93cf41f6    	ror	x22, x15, #0x10
100005024: 8b0200ef    	add	x15, x7, x2
100005028: 8b030222    	add	x2, x17, x3
10000502c: 8b170042    	add	x2, x2, x23
100005030: ca020163    	eor	x3, x11, x2
100005034: 93c1402b    	ror	x11, x1, #0x10
100005038: 93c38077    	ror	x23, x3, #0x20
10000503c: ca0401e1    	eor	x1, x15, x4
100005040: 8b170219    	add	x25, x16, x23
100005044: 93c14030    	ror	x16, x1, #0x10
100005048: ca110331    	eor	x17, x25, x17
10000504c: 93d1623a    	ror	x26, x17, #0x18
100005050: f8787944    	ldr	x4, [x10, x24, lsl #3]
100005054: 8b1502c1    	add	x1, x22, x21
100005058: ca130031    	eor	x17, x1, x19
10000505c: 8b140163    	add	x3, x11, x20
100005060: ca060066    	eor	x6, x3, x6
100005064: 8b050205    	add	x5, x16, x5
100005068: 93d1fe31    	ror	x17, x17, #0x3f
10000506c: ca0700a7    	eor	x7, x5, x7
100005070: 8b040042    	add	x2, x2, x4
100005074: 8b020344    	add	x4, x26, x2
100005078: ca170082    	eor	x2, x4, x23
10000507c: 93c6fcc6    	ror	x6, x6, #0x3f
100005080: 93c24042    	ror	x2, x2, #0x10
100005084: 8b190053    	add	x19, x2, x25
100005088: ca1a0274    	eor	x20, x19, x26
10000508c: 93c7fce7    	ror	x7, x7, #0x3f
100005090: 29445db5    	ldp	w21, w23, [x13, #0x20]
100005094: f8757955    	ldr	x21, [x10, x21, lsl #3]
100005098: 93d4fe94    	ror	x20, x20, #0x3f
10000509c: 8b15018c    	add	x12, x12, x21
1000050a0: 8b0c00cc    	add	x12, x6, x12
1000050a4: f8777955    	ldr	x21, [x10, x23, lsl #3]
1000050a8: ca020182    	eor	x2, x12, x2
1000050ac: 294561b7    	ldp	w23, w24, [x13, #0x28]
1000050b0: f8777957    	ldr	x23, [x10, x23, lsl #3]
1000050b4: 93c28042    	ror	x2, x2, #0x20
1000050b8: 8b1701ce    	add	x14, x14, x23
1000050bc: 8b0e00ee    	add	x14, x7, x14
1000050c0: ca1601d6    	eor	x22, x14, x22
1000050c4: 8b050045    	add	x5, x2, x5
1000050c8: ca0600a6    	eor	x6, x5, x6
1000050cc: 93d682d6    	ror	x22, x22, #0x20
1000050d0: 8b1302d3    	add	x19, x22, x19
1000050d4: ca070267    	eor	x7, x19, x7
1000050d8: 93c660c6    	ror	x6, x6, #0x18
1000050dc: 93c760e7    	ror	x7, x7, #0x18
1000050e0: f8787957    	ldr	x23, [x10, x24, lsl #3]
1000050e4: 8b15018c    	add	x12, x12, x21
1000050e8: 8b0c00cc    	add	x12, x6, x12
1000050ec: 294661b5    	ldp	w21, w24, [x13, #0x30]
1000050f0: f8757955    	ldr	x21, [x10, x21, lsl #3]
1000050f4: 8b1701ce    	add	x14, x14, x23
1000050f8: 8b0e00ee    	add	x14, x7, x14
1000050fc: 8b1501ef    	add	x15, x15, x21
100005100: 8b0f028f    	add	x15, x20, x15
100005104: ca0b01eb    	eor	x11, x15, x11
100005108: 93cb8175    	ror	x21, x11, #0x20
10000510c: ca02018b    	eor	x11, x12, x2
100005110: 8b0102b7    	add	x23, x21, x1
100005114: ca1402e1    	eor	x1, x23, x20
100005118: 93c16034    	ror	x20, x1, #0x18
10000511c: 93cb416b    	ror	x11, x11, #0x10
100005120: ca1601c1    	eor	x1, x14, x22
100005124: f8787942    	ldr	x2, [x10, x24, lsl #3]
100005128: 8b0201e2    	add	x2, x15, x2
10000512c: 93c1402f    	ror	x15, x1, #0x10
100005130: 8b020282    	add	x2, x20, x2
100005134: ca150041    	eor	x1, x2, x21
100005138: 294735b5    	ldp	w21, w13, [x13, #0x38]
10000513c: 93c14021    	ror	x1, x1, #0x10
100005140: f8757955    	ldr	x21, [x10, x21, lsl #3]
100005144: 8b150084    	add	x4, x4, x21
100005148: 8b110084    	add	x4, x4, x17
10000514c: 8b050165    	add	x5, x11, x5
100005150: ca0600a6    	eor	x6, x5, x6
100005154: ca100090    	eor	x16, x4, x16
100005158: 93d08216    	ror	x22, x16, #0x20
10000515c: 8b0302d8    	add	x24, x22, x3
100005160: 8b1301f0    	add	x16, x15, x19
100005164: ca070207    	eor	x7, x16, x7
100005168: ca110311    	eor	x17, x24, x17
10000516c: 93d16233    	ror	x19, x17, #0x18
100005170: f86d794d    	ldr	x13, [x10, x13, lsl #3]
100005174: 8b170035    	add	x21, x1, x23
100005178: ca1402b1    	eor	x17, x21, x20
10000517c: 8b0d008d    	add	x13, x4, x13
100005180: 8b0d0263    	add	x3, x19, x13
100005184: ca16006d    	eor	x13, x3, x22
100005188: 93c6fcc6    	ror	x6, x6, #0x3f
10000518c: 93c7fce7    	ror	x7, x7, #0x3f
100005190: 93cd41a4    	ror	x4, x13, #0x10
100005194: 93d1fe31    	ror	x17, x17, #0x3f
100005198: 8b180094    	add	x20, x4, x24
10000519c: ca13028d    	eor	x13, x20, x19
1000051a0: 93cdfdb3    	ror	x19, x13, #0x3f
1000051a4: 91010108    	add	x8, x8, #0x40
1000051a8: f10c011f    	cmp	x8, #0x300
1000051ac: 54ffeea1    	b.ne	0x100004f80 <_blake2b_compress+0x104>
1000051b0: a9402408    	ldp	x8, x9, [x0]
1000051b4: ca080188    	eor	x8, x12, x8
1000051b8: ca150108    	eor	x8, x8, x21
1000051bc: ca0901c9    	eor	x9, x14, x9
1000051c0: ca140129    	eor	x9, x9, x20
1000051c4: a9002408    	stp	x8, x9, [x0]
1000051c8: a9412408    	ldp	x8, x9, [x0, #0x10]
1000051cc: ca080048    	eor	x8, x2, x8
1000051d0: ca050108    	eor	x8, x8, x5
1000051d4: ca090069    	eor	x9, x3, x9
1000051d8: ca100129    	eor	x9, x9, x16
1000051dc: a9012408    	stp	x8, x9, [x0, #0x10]
1000051e0: a9422408    	ldp	x8, x9, [x0, #0x20]
1000051e4: ca0f0108    	eor	x8, x8, x15
1000051e8: ca080268    	eor	x8, x19, x8
1000051ec: ca010129    	eor	x9, x9, x1
1000051f0: ca0900c9    	eor	x9, x6, x9
1000051f4: a9022408    	stp	x8, x9, [x0, #0x20]
1000051f8: a9432408    	ldp	x8, x9, [x0, #0x30]
1000051fc: ca040108    	eor	x8, x8, x4
100005200: ca0800e8    	eor	x8, x7, x8
100005204: ca0b0129    	eor	x9, x9, x11
100005208: ca090229    	eor	x9, x17, x9
10000520c: a9032408    	stp	x8, x9, [x0, #0x30]
100005210: f85b83a8    	ldur	x8, [x29, #-0x48]
100005214: f0000009    	adrp	x9, 0x100008000 <_strncmp+0x100008000>
100005218: f9401129    	ldr	x9, [x9, #0x20]
10000521c: f9400129    	ldr	x9, [x9]
100005220: eb08013f    	cmp	x9, x8
100005224: 54000101    	b.ne	0x100005244 <_blake2b_compress+0x3c8>
100005228: a94d7bfd    	ldp	x29, x30, [sp, #0xd0]
10000522c: a94c4ff4    	ldp	x20, x19, [sp, #0xc0]
100005230: a94b57f6    	ldp	x22, x21, [sp, #0xb0]
100005234: a94a5ff8    	ldp	x24, x23, [sp, #0xa0]
100005238: a94967fa    	ldp	x26, x25, [sp, #0x90]
10000523c: 910383ff    	add	sp, sp, #0xe0
100005240: d65f03c0    	ret
100005244: 94000751    	bl	0x100006f88 <_strncmp+0x100006f88>

0000000100005248 <_blake2b_final>:
100005248: d10203ff    	sub	sp, sp, #0x80
10000524c: a90557f6    	stp	x22, x21, [sp, #0x50]
100005250: a9064ff4    	stp	x20, x19, [sp, #0x60]
100005254: a9077bfd    	stp	x29, x30, [sp, #0x70]
100005258: 9101c3fd    	add	x29, sp, #0x70
10000525c: aa0003f3    	mov	x19, x0
100005260: f0000008    	adrp	x8, 0x100008000 <_strncmp+0x100008000>
100005264: f9401108    	ldr	x8, [x8, #0x20]
100005268: f9400108    	ldr	x8, [x8]
10000526c: f81d83a8    	stur	x8, [x29, #-0x28]
100005270: 12800000    	mov	w0, #-0x1               ; =-1
100005274: b40005b3    	cbz	x19, 0x100005328 <_blake2b_final+0xe0>
100005278: aa0103f4    	mov	x20, x1
10000527c: b4000561    	cbz	x1, 0x100005328 <_blake2b_final+0xe0>
100005280: b940e668    	ldr	w8, [x19, #0xe4]
100005284: eb02011f    	cmp	x8, x2
100005288: 54000508    	b.hi	0x100005328 <_blake2b_final+0xe0>
10000528c: f9402a68    	ldr	x8, [x19, #0x50]
100005290: b50004c8    	cbnz	x8, 0x100005328 <_blake2b_final+0xe0>
100005294: b940e268    	ldr	w8, [x19, #0xe0]
100005298: a9442a69    	ldp	x9, x10, [x19, #0x40]
10000529c: ab080129    	adds	x9, x9, x8
1000052a0: 9a8a354a    	cinc	x10, x10, hs
1000052a4: a9042a69    	stp	x9, x10, [x19, #0x40]
1000052a8: 3943a269    	ldrb	w9, [x19, #0xe8]
1000052ac: 34000069    	cbz	w9, 0x1000052b8 <_blake2b_final+0x70>
1000052b0: 92800009    	mov	x9, #-0x1               ; =-1
1000052b4: f9002e69    	str	x9, [x19, #0x58]
1000052b8: 92800009    	mov	x9, #-0x1               ; =-1
1000052bc: f9002a69    	str	x9, [x19, #0x50]
1000052c0: 91018275    	add	x21, x19, #0x60
1000052c4: 8b0802a0    	add	x0, x21, x8
1000052c8: 52801009    	mov	w9, #0x80               ; =128
1000052cc: 4b080121    	sub	w1, w9, w8
1000052d0: 94000731    	bl	0x100006f94 <_strncmp+0x100006f94>
1000052d4: aa1303e0    	mov	x0, x19
1000052d8: aa1503e1    	mov	x1, x21
1000052dc: 97fffee8    	bl	0x100004e7c <_blake2b_compress>
1000052e0: ad400660    	ldp	q0, q1, [x19]
1000052e4: ad0007e0    	stp	q0, q1, [sp]
1000052e8: ad410660    	ldp	q0, q1, [x19, #0x20]
1000052ec: ad0107e0    	stp	q0, q1, [sp, #0x20]
1000052f0: b940e662    	ldr	w2, [x19, #0xe4]
1000052f4: 910003e1    	mov	x1, sp
1000052f8: aa1403e0    	mov	x0, x20
1000052fc: 94000744    	bl	0x10000700c <_strncmp+0x10000700c>
100005300: 910003e0    	mov	x0, sp
100005304: 52800801    	mov	w1, #0x40               ; =64
100005308: 97fff961    	bl	0x10000388c <_clear_internal_memory>
10000530c: aa1503e0    	mov	x0, x21
100005310: 52801001    	mov	w1, #0x80               ; =128
100005314: 97fff95e    	bl	0x10000388c <_clear_internal_memory>
100005318: aa1303e0    	mov	x0, x19
10000531c: 52800801    	mov	w1, #0x40               ; =64
100005320: 97fff95b    	bl	0x10000388c <_clear_internal_memory>
100005324: 52800000    	mov	w0, #0x0                ; =0
100005328: f85d83a8    	ldur	x8, [x29, #-0x28]
10000532c: f0000009    	adrp	x9, 0x100008000 <_strncmp+0x100008000>
100005330: f9401129    	ldr	x9, [x9, #0x20]
100005334: f9400129    	ldr	x9, [x9]
100005338: eb08013f    	cmp	x9, x8
10000533c: 540000c1    	b.ne	0x100005354 <_blake2b_final+0x10c>
100005340: a9477bfd    	ldp	x29, x30, [sp, #0x70]
100005344: a9464ff4    	ldp	x20, x19, [sp, #0x60]
100005348: a94557f6    	ldp	x22, x21, [sp, #0x50]
10000534c: 910203ff    	add	sp, sp, #0x80
100005350: d65f03c0    	ret
100005354: 9400070d    	bl	0x100006f88 <_strncmp+0x100006f88>

0000000100005358 <_blake2b>:
100005358: d10503ff    	sub	sp, sp, #0x140
10000535c: a9105ff8    	stp	x24, x23, [sp, #0x100]
100005360: a91157f6    	stp	x22, x21, [sp, #0x110]
100005364: a9124ff4    	stp	x20, x19, [sp, #0x120]
100005368: a9137bfd    	stp	x29, x30, [sp, #0x130]
10000536c: 9104c3fd    	add	x29, sp, #0x130
100005370: aa0303f5    	mov	x21, x3
100005374: aa0203f6    	mov	x22, x2
100005378: aa0103f3    	mov	x19, x1
10000537c: aa0003f4    	mov	x20, x0
100005380: f0000008    	adrp	x8, 0x100008000 <_strncmp+0x100008000>
100005384: f9401108    	ldr	x8, [x8, #0x20]
100005388: f9400108    	ldr	x8, [x8]
10000538c: f81c83a8    	stur	x8, [x29, #-0x38]
100005390: b5000082    	cbnz	x2, 0x1000053a0 <_blake2b+0x48>
100005394: b4000075    	cbz	x21, 0x1000053a0 <_blake2b+0x48>
100005398: 12800017    	mov	w23, #-0x1              ; =-1
10000539c: 14000034    	b	0x10000546c <_blake2b+0x114>
1000053a0: 12800017    	mov	w23, #-0x1              ; =-1
1000053a4: b4000654    	cbz	x20, 0x10000546c <_blake2b+0x114>
1000053a8: d1010668    	sub	x8, x19, #0x41
1000053ac: b101011f    	cmn	x8, #0x40
1000053b0: 540005e3    	b.lo	0x10000546c <_blake2b+0x114>
1000053b4: f100009f    	cmp	x4, #0x0
1000053b8: fa4008a4    	ccmp	x5, #0x0, #0x4, eq
1000053bc: 1a9f07e8    	cset	w8, ne
1000053c0: f10100bf    	cmp	x5, #0x40
1000053c4: 54000548    	b.hi	0x10000546c <_blake2b+0x114>
1000053c8: 37000528    	tbnz	w8, #0x0, 0x10000546c <_blake2b+0x114>
1000053cc: b4000105    	cbz	x5, 0x1000053ec <_blake2b+0x94>
1000053d0: 910003e0    	mov	x0, sp
1000053d4: aa1303e1    	mov	x1, x19
1000053d8: aa0403e2    	mov	x2, x4
1000053dc: aa0503e3    	mov	x3, x5
1000053e0: 97fffe09    	bl	0x100004c04 <_blake2b_init_key>
1000053e4: 36f80300    	tbz	w0, #0x1f, 0x100005444 <_blake2b+0xec>
1000053e8: 14000021    	b	0x10000546c <_blake2b+0x114>
1000053ec: 6f00e402    	movi.2d	v2, #0000000000000000
1000053f0: ad068be2    	stp	q2, q2, [sp, #0xd0]
1000053f4: ad058be2    	stp	q2, q2, [sp, #0xb0]
1000053f8: ad048be2    	stp	q2, q2, [sp, #0x90]
1000053fc: ad038be2    	stp	q2, q2, [sp, #0x70]
100005400: ad028be2    	stp	q2, q2, [sp, #0x50]
100005404: d0000008    	adrp	x8, 0x100007000 <_strncmp+0x100007000>
100005408: 91032108    	add	x8, x8, #0xc8
10000540c: ad400500    	ldp	q0, q1, [x8]
100005410: ad0007e0    	stp	q0, q1, [sp]
100005414: ad410500    	ldp	q0, q1, [x8, #0x20]
100005418: 3d800be0    	str	q0, [sp, #0x20]
10000541c: ad018be1    	stp	q1, q2, [sp, #0x30]
100005420: 92a02028    	mov	x8, #-0x1010001         ; =-16842753
100005424: 8a080268    	and	x8, x19, x8
100005428: d2992109    	mov	x9, #0xc908             ; =51464
10000542c: f2be57a9    	movk	x9, #0xf2bd, lsl #16
100005430: f2dccce9    	movk	x9, #0xe667, lsl #32
100005434: f2ed4129    	movk	x9, #0x6a09, lsl #48
100005438: ca090108    	eor	x8, x8, x9
10000543c: f90003e8    	str	x8, [sp]
100005440: b900e7f3    	str	w19, [sp, #0xe4]
100005444: 910003e0    	mov	x0, sp
100005448: aa1603e1    	mov	x1, x22
10000544c: aa1503e2    	mov	x2, x21
100005450: 97fffe41    	bl	0x100004d54 <_blake2b_update>
100005454: 37f800c0    	tbnz	w0, #0x1f, 0x10000546c <_blake2b+0x114>
100005458: 910003e0    	mov	x0, sp
10000545c: aa1403e1    	mov	x1, x20
100005460: aa1303e2    	mov	x2, x19
100005464: 97ffff79    	bl	0x100005248 <_blake2b_final>
100005468: aa0003f7    	mov	x23, x0
10000546c: 910003e0    	mov	x0, sp
100005470: 52801e01    	mov	w1, #0xf0               ; =240
100005474: 97fff906    	bl	0x10000388c <_clear_internal_memory>
100005478: f85c83a8    	ldur	x8, [x29, #-0x38]
10000547c: f0000009    	adrp	x9, 0x100008000 <_strncmp+0x100008000>
100005480: f9401129    	ldr	x9, [x9, #0x20]
100005484: f9400129    	ldr	x9, [x9]
100005488: eb08013f    	cmp	x9, x8
10000548c: 54000101    	b.ne	0x1000054ac <_blake2b+0x154>
100005490: aa1703e0    	mov	x0, x23
100005494: a9537bfd    	ldp	x29, x30, [sp, #0x130]
100005498: a9524ff4    	ldp	x20, x19, [sp, #0x120]
10000549c: a95157f6    	ldp	x22, x21, [sp, #0x110]
1000054a0: a9505ff8    	ldp	x24, x23, [sp, #0x100]
1000054a4: 910503ff    	add	sp, sp, #0x140
1000054a8: d65f03c0    	ret
1000054ac: 940006b7    	bl	0x100006f88 <_strncmp+0x100006f88>

00000001000054b0 <_blake2b_long>:
1000054b0: a9bb67fa    	stp	x26, x25, [sp, #-0x50]!
1000054b4: a9015ff8    	stp	x24, x23, [sp, #0x10]
1000054b8: a90257f6    	stp	x22, x21, [sp, #0x20]
1000054bc: a9034ff4    	stp	x20, x19, [sp, #0x30]
1000054c0: a9047bfd    	stp	x29, x30, [sp, #0x40]
1000054c4: 910103fd    	add	x29, sp, #0x40
1000054c8: d10b03ff    	sub	sp, sp, #0x2c0
1000054cc: f0000008    	adrp	x8, 0x100008000 <_strncmp+0x100008000>
1000054d0: f9401108    	ldr	x8, [x8, #0x20]
1000054d4: f9400108    	ldr	x8, [x8]
1000054d8: f81b83a8    	stur	x8, [x29, #-0x48]
1000054dc: b9004fff    	str	wzr, [sp, #0x4c]
1000054e0: d360fc28    	lsr	x8, x1, #32
1000054e4: b4000268    	cbz	x8, 0x100005530 <_blake2b_long+0x80>
1000054e8: 12800013    	mov	w19, #-0x1              ; =-1
1000054ec: 910343e0    	add	x0, sp, #0xd0
1000054f0: 52801e01    	mov	w1, #0xf0               ; =240
1000054f4: 97fff8e6    	bl	0x10000388c <_clear_internal_memory>
1000054f8: f85b83a8    	ldur	x8, [x29, #-0x48]
1000054fc: f0000009    	adrp	x9, 0x100008000 <_strncmp+0x100008000>
100005500: f9401129    	ldr	x9, [x9, #0x20]
100005504: f9400129    	ldr	x9, [x9]
100005508: eb08013f    	cmp	x9, x8
10000550c: 54001561    	b.ne	0x1000057b8 <_blake2b_long+0x308>
100005510: aa1303e0    	mov	x0, x19
100005514: 910b03ff    	add	sp, sp, #0x2c0
100005518: a9447bfd    	ldp	x29, x30, [sp, #0x40]
10000551c: a9434ff4    	ldp	x20, x19, [sp, #0x30]
100005520: a94257f6    	ldp	x22, x21, [sp, #0x20]
100005524: a9415ff8    	ldp	x24, x23, [sp, #0x10]
100005528: a8c567fa    	ldp	x26, x25, [sp], #0x50
10000552c: d65f03c0    	ret
100005530: aa0303f5    	mov	x21, x3
100005534: aa0203f6    	mov	x22, x2
100005538: aa0103f4    	mov	x20, x1
10000553c: aa0003f3    	mov	x19, x0
100005540: 910343f7    	add	x23, sp, #0xd0
100005544: b9004ff4    	str	w20, [sp, #0x4c]
100005548: f101003f    	cmp	x1, #0x40
10000554c: 54000528    	b.hi	0x1000055f0 <_blake2b_long+0x140>
100005550: b4001194    	cbz	x20, 0x100005780 <_blake2b_long+0x2d0>
100005554: 6f00e402    	movi.2d	v2, #0000000000000000
100005558: ad068ae2    	stp	q2, q2, [x23, #0xd0]
10000555c: ad058ae2    	stp	q2, q2, [x23, #0xb0]
100005560: ad048ae2    	stp	q2, q2, [x23, #0x90]
100005564: ad038ae2    	stp	q2, q2, [x23, #0x70]
100005568: ad028ae2    	stp	q2, q2, [x23, #0x50]
10000556c: d0000008    	adrp	x8, 0x100007000 <_strncmp+0x100007000>
100005570: 91032108    	add	x8, x8, #0xc8
100005574: ad400500    	ldp	q0, q1, [x8]
100005578: ad0006e0    	stp	q0, q1, [x23]
10000557c: ad410500    	ldp	q0, q1, [x8, #0x20]
100005580: 3d800ae0    	str	q0, [x23, #0x20]
100005584: ad018ae1    	stp	q1, q2, [x23, #0x30]
100005588: 92a02028    	mov	x8, #-0x1010001         ; =-16842753
10000558c: 8a080288    	and	x8, x20, x8
100005590: d2992909    	mov	x9, #0xc948             ; =51528
100005594: f2be57a9    	movk	x9, #0xf2bd, lsl #16
100005598: f2dccce9    	movk	x9, #0xe667, lsl #32
10000559c: f2ed4129    	movk	x9, #0x6a09, lsl #48
1000055a0: d1010129    	sub	x9, x9, #0x40
1000055a4: ca090108    	eor	x8, x8, x9
1000055a8: f90002e8    	str	x8, [x23]
1000055ac: b901b7f4    	str	w20, [sp, #0x1b4]
1000055b0: 910343e0    	add	x0, sp, #0xd0
1000055b4: 910133e1    	add	x1, sp, #0x4c
1000055b8: 52800082    	mov	w2, #0x4                ; =4
1000055bc: 97fffde6    	bl	0x100004d54 <_blake2b_update>
1000055c0: 37fff940    	tbnz	w0, #0x1f, 0x1000054e8 <_blake2b_long+0x38>
1000055c4: 910343e0    	add	x0, sp, #0xd0
1000055c8: aa1603e1    	mov	x1, x22
1000055cc: aa1503e2    	mov	x2, x21
1000055d0: 97fffde1    	bl	0x100004d54 <_blake2b_update>
1000055d4: 37fff8a0    	tbnz	w0, #0x1f, 0x1000054e8 <_blake2b_long+0x38>
1000055d8: 910343e0    	add	x0, sp, #0xd0
1000055dc: aa1303e1    	mov	x1, x19
1000055e0: aa1403e2    	mov	x2, x20
1000055e4: 97ffff19    	bl	0x100005248 <_blake2b_final>
1000055e8: aa0003f3    	mov	x19, x0
1000055ec: 17ffffc0    	b	0x1000054ec <_blake2b_long+0x3c>
1000055f0: d2992918    	mov	x24, #0xc948            ; =51528
1000055f4: f2be57b8    	movk	x24, #0xf2bd, lsl #16
1000055f8: f2dcccf8    	movk	x24, #0xe667, lsl #32
1000055fc: f2ed4138    	movk	x24, #0x6a09, lsl #48
100005600: 6f00e400    	movi.2d	v0, #0000000000000000
100005604: ad0202e0    	stp	q0, q0, [x23, #0x40]
100005608: ad0302e0    	stp	q0, q0, [x23, #0x60]
10000560c: ad0402e0    	stp	q0, q0, [x23, #0x80]
100005610: ad0502e0    	stp	q0, q0, [x23, #0xa0]
100005614: ad0602e0    	stp	q0, q0, [x23, #0xc0]
100005618: d0000008    	adrp	x8, 0x100007000 <_strncmp+0x100007000>
10000561c: 91032108    	add	x8, x8, #0xc8
100005620: 3d803ae0    	str	q0, [x23, #0xe0]
100005624: ad410101    	ldp	q1, q0, [x8, #0x20]
100005628: ad0103e1    	stp	q1, q0, [sp, #0x20]
10000562c: ad0102e1    	stp	q1, q0, [x23, #0x20]
100005630: ad400500    	ldp	q0, q1, [x8]
100005634: ad0003e1    	stp	q1, q0, [sp]
100005638: ad0006e0    	stp	q0, q1, [x23]
10000563c: f90002f8    	str	x24, [x23]
100005640: 52800808    	mov	w8, #0x40               ; =64
100005644: b901b7e8    	str	w8, [sp, #0x1b4]
100005648: 910343e0    	add	x0, sp, #0xd0
10000564c: 910133e1    	add	x1, sp, #0x4c
100005650: 52800082    	mov	w2, #0x4                ; =4
100005654: 97fffdc0    	bl	0x100004d54 <_blake2b_update>
100005658: 37fff480    	tbnz	w0, #0x1f, 0x1000054e8 <_blake2b_long+0x38>
10000565c: 910343e0    	add	x0, sp, #0xd0
100005660: aa1603e1    	mov	x1, x22
100005664: aa1503e2    	mov	x2, x21
100005668: 97fffdbb    	bl	0x100004d54 <_blake2b_update>
10000566c: 37fff3e0    	tbnz	w0, #0x1f, 0x1000054e8 <_blake2b_long+0x38>
100005670: 910343e0    	add	x0, sp, #0xd0
100005674: 910243e1    	add	x1, sp, #0x90
100005678: 52800802    	mov	w2, #0x40               ; =64
10000567c: 97fffef3    	bl	0x100005248 <_blake2b_final>
100005680: 37fff340    	tbnz	w0, #0x1f, 0x1000054e8 <_blake2b_long+0x38>
100005684: ad4487e0    	ldp	q0, q1, [sp, #0x90]
100005688: ac810660    	stp	q0, q1, [x19], #0x20
10000568c: 51008295    	sub	w21, w20, #0x20
100005690: 710106bf    	cmp	w21, #0x41
100005694: 54000503    	b.lo	0x100005734 <_blake2b_long+0x284>
100005698: 910703e8    	add	x8, sp, #0x1c0
10000569c: 91010116    	add	x22, x8, #0x40
1000056a0: 52800819    	mov	w25, #0x40              ; =64
1000056a4: ad4487e0    	ldp	q0, q1, [sp, #0x90]
1000056a8: ad0287e0    	stp	q0, q1, [sp, #0x50]
1000056ac: ad4587e0    	ldp	q0, q1, [sp, #0xb0]
1000056b0: ad0387e0    	stp	q0, q1, [sp, #0x70]
1000056b4: 6f00e400    	movi.2d	v0, #0000000000000000
1000056b8: ad0482c0    	stp	q0, q0, [x22, #0x90]
1000056bc: ad0382c0    	stp	q0, q0, [x22, #0x70]
1000056c0: ad0282c0    	stp	q0, q0, [x22, #0x50]
1000056c4: ad0182c0    	stp	q0, q0, [x22, #0x30]
1000056c8: ad0082c0    	stp	q0, q0, [x22, #0x10]
1000056cc: 3d8002c0    	str	q0, [x22]
1000056d0: ad400be0    	ldp	q0, q2, [sp]
1000056d4: ad0782e2    	stp	q2, q0, [x23, #0xf0]
1000056d8: ad4103e2    	ldp	q2, q0, [sp, #0x20]
1000056dc: ad0882e2    	stp	q2, q0, [x23, #0x110]
1000056e0: f9007af8    	str	x24, [x23, #0xf0]
1000056e4: b902a7f9    	str	w25, [sp, #0x2a4]
1000056e8: 910703e0    	add	x0, sp, #0x1c0
1000056ec: 910143e1    	add	x1, sp, #0x50
1000056f0: 52800802    	mov	w2, #0x40               ; =64
1000056f4: 97fffd98    	bl	0x100004d54 <_blake2b_update>
1000056f8: 37f80580    	tbnz	w0, #0x1f, 0x1000057a8 <_blake2b_long+0x2f8>
1000056fc: 910703e0    	add	x0, sp, #0x1c0
100005700: 910243e1    	add	x1, sp, #0x90
100005704: 52800802    	mov	w2, #0x40               ; =64
100005708: 97fffed0    	bl	0x100005248 <_blake2b_final>
10000570c: aa0003f4    	mov	x20, x0
100005710: 910703e0    	add	x0, sp, #0x1c0
100005714: 52801e01    	mov	w1, #0xf0               ; =240
100005718: 97fff85d    	bl	0x10000388c <_clear_internal_memory>
10000571c: 37ffee74    	tbnz	w20, #0x1f, 0x1000054e8 <_blake2b_long+0x38>
100005720: ad4487e0    	ldp	q0, q1, [sp, #0x90]
100005724: ac810660    	stp	q0, q1, [x19], #0x20
100005728: 510082b5    	sub	w21, w21, #0x20
10000572c: 710102bf    	cmp	w21, #0x40
100005730: 54fffba8    	b.hi	0x1000056a4 <_blake2b_long+0x1f4>
100005734: ad4487e0    	ldp	q0, q1, [sp, #0x90]
100005738: ad0287e0    	stp	q0, q1, [sp, #0x50]
10000573c: ad4587e0    	ldp	q0, q1, [sp, #0xb0]
100005740: ad0387e0    	stp	q0, q1, [sp, #0x70]
100005744: 2a1503f4    	mov	w20, w21
100005748: 910243e0    	add	x0, sp, #0x90
10000574c: 910143e2    	add	x2, sp, #0x50
100005750: aa1403e1    	mov	x1, x20
100005754: 52800803    	mov	w3, #0x40               ; =64
100005758: d2800004    	mov	x4, #0x0                ; =0
10000575c: d2800005    	mov	x5, #0x0                ; =0
100005760: 97fffefe    	bl	0x100005358 <_blake2b>
100005764: 37ffec20    	tbnz	w0, #0x1f, 0x1000054e8 <_blake2b_long+0x38>
100005768: 910243e1    	add	x1, sp, #0x90
10000576c: aa1303e0    	mov	x0, x19
100005770: aa1403e2    	mov	x2, x20
100005774: 94000626    	bl	0x10000700c <_strncmp+0x10000700c>
100005778: 52800013    	mov	w19, #0x0               ; =0
10000577c: 17ffff5c    	b	0x1000054ec <_blake2b_long+0x3c>
100005780: 910343e0    	add	x0, sp, #0xd0
100005784: 52801e01    	mov	w1, #0xf0               ; =240
100005788: 97fff841    	bl	0x10000388c <_clear_internal_memory>
10000578c: 3946e3e8    	ldrb	w8, [sp, #0x1b8]
100005790: 34000068    	cbz	w8, 0x10000579c <_blake2b_long+0x2ec>
100005794: 92800008    	mov	x8, #-0x1               ; =-1
100005798: f9002ee8    	str	x8, [x23, #0x58]
10000579c: 92800008    	mov	x8, #-0x1               ; =-1
1000057a0: f9002ae8    	str	x8, [x23, #0x50]
1000057a4: 17ffff51    	b	0x1000054e8 <_blake2b_long+0x38>
1000057a8: 910703e0    	add	x0, sp, #0x1c0
1000057ac: 52801e01    	mov	w1, #0xf0               ; =240
1000057b0: 97fff837    	bl	0x10000388c <_clear_internal_memory>
1000057b4: 17ffff4d    	b	0x1000054e8 <_blake2b_long+0x38>
1000057b8: 940005f4    	bl	0x100006f88 <_strncmp+0x100006f88>

00000001000057bc <_argon2_thread_create>:
1000057bc: b40000c0    	cbz	x0, 0x1000057d4 <_argon2_thread_create+0x18>
1000057c0: aa0203e3    	mov	x3, x2
1000057c4: aa0103e2    	mov	x2, x1
1000057c8: b4000061    	cbz	x1, 0x1000057d4 <_argon2_thread_create+0x18>
1000057cc: d2800001    	mov	x1, #0x0                ; =0
1000057d0: 1400061e    	b	0x100007048 <_strncmp+0x100007048>
1000057d4: 12800000    	mov	w0, #-0x1               ; =-1
1000057d8: d65f03c0    	ret

00000001000057dc <_argon2_thread_join>:
1000057dc: d2800001    	mov	x1, #0x0                ; =0
1000057e0: 14000620    	b	0x100007060 <_strncmp+0x100007060>

00000001000057e4 <_argon2_thread_exit>:
1000057e4: a9bf7bfd    	stp	x29, x30, [sp, #-0x10]!
1000057e8: 910003fd    	mov	x29, sp
1000057ec: d2800000    	mov	x0, #0x0                ; =0
1000057f0: 94000619    	bl	0x100007054 <_strncmp+0x100007054>

00000001000057f4 <_decode_string>:
1000057f4: d10183ff    	sub	sp, sp, #0x60
1000057f8: a90167fa    	stp	x26, x25, [sp, #0x10]
1000057fc: a9025ff8    	stp	x24, x23, [sp, #0x20]
100005800: a90357f6    	stp	x22, x21, [sp, #0x30]
100005804: a9044ff4    	stp	x20, x19, [sp, #0x40]
100005808: a9057bfd    	stp	x29, x30, [sp, #0x50]
10000580c: 910143fd    	add	x29, sp, #0x50
100005810: aa0103f4    	mov	x20, x1
100005814: aa0003f3    	mov	x19, x0
100005818: b9402819    	ldr	w25, [x0, #0x28]
10000581c: b9400818    	ldr	w24, [x0, #0x8]
100005820: aa0203e0    	mov	x0, x2
100005824: 52800001    	mov	w1, #0x0                ; =0
100005828: 97fff3c9    	bl	0x10000274c <_argon2_type2string>
10000582c: b40001e0    	cbz	x0, 0x100005868 <_decode_string+0x74>
100005830: 39400288    	ldrb	w8, [x20]
100005834: 7100911f    	cmp	w8, #0x24
100005838: 54000141    	b.ne	0x100005860 <_decode_string+0x6c>
10000583c: aa0003f6    	mov	x22, x0
100005840: 91000697    	add	x23, x20, #0x1
100005844: 94000619    	bl	0x1000070a8 <_strncmp+0x1000070a8>
100005848: aa0003f5    	mov	x21, x0
10000584c: aa1703e0    	mov	x0, x23
100005850: aa1603e1    	mov	x1, x22
100005854: aa1503e2    	mov	x2, x21
100005858: 94000617    	bl	0x1000070b4 <_strncmp+0x1000070b4>
10000585c: 34000160    	cbz	w0, 0x100005888 <_decode_string+0x94>
100005860: 128003e0    	mov	w0, #-0x20              ; =-32
100005864: 14000002    	b	0x10000586c <_decode_string+0x78>
100005868: 12800320    	mov	w0, #-0x1a              ; =-26
10000586c: a9457bfd    	ldp	x29, x30, [sp, #0x50]
100005870: a9444ff4    	ldp	x20, x19, [sp, #0x40]
100005874: a94357f6    	ldp	x22, x21, [sp, #0x30]
100005878: a9425ff8    	ldp	x24, x23, [sp, #0x20]
10000587c: a94167fa    	ldp	x26, x25, [sp, #0x10]
100005880: 910183ff    	add	sp, sp, #0x60
100005884: d65f03c0    	ret
100005888: 8b1502f6    	add	x22, x23, x21
10000588c: 52800208    	mov	w8, #0x10               ; =16
100005890: b9005e68    	str	w8, [x19, #0x5c]
100005894: d0000001    	adrp	x1, 0x100007000 <_strncmp+0x100007000>
100005898: 913b1c21    	add	x1, x1, #0xec7
10000589c: aa1603e0    	mov	x0, x22
1000058a0: 52800062    	mov	w2, #0x3                ; =3
1000058a4: 94000604    	bl	0x1000070b4 <_strncmp+0x1000070b4>
1000058a8: 34000e20    	cbz	w0, 0x100005a6c <_decode_string+0x278>
1000058ac: d0000001    	adrp	x1, 0x100007000 <_strncmp+0x100007000>
1000058b0: 913b2c21    	add	x1, x1, #0xecb
1000058b4: aa1603e0    	mov	x0, x22
1000058b8: 52800062    	mov	w2, #0x3                ; =3
1000058bc: 940005fe    	bl	0x1000070b4 <_strncmp+0x1000070b4>
1000058c0: 91000ec8    	add	x8, x22, #0x3
1000058c4: 7100001f    	cmp	w0, #0x0
1000058c8: 9a960114    	csel	x20, x8, x22, eq
1000058cc: 35fffca0    	cbnz	w0, 0x100005860 <_decode_string+0x6c>
1000058d0: 39400109    	ldrb	w9, [x8]
1000058d4: 5100e928    	sub	w8, w9, #0x3a
1000058d8: 3100291f    	cmn	w8, #0xa
1000058dc: 54fffc23    	b.lo	0x100005860 <_decode_string+0x6c>
1000058e0: d2800008    	mov	x8, #0x0                ; =0
1000058e4: d280000c    	mov	x12, #0x0               ; =0
1000058e8: b201e7ea    	mov	x10, #-0x6666666666666667 ; =-7378697629483820647
1000058ec: f2e3332a    	movk	x10, #0x1999, lsl #48
1000058f0: 128005eb    	mov	w11, #-0x30             ; =-48
1000058f4: aa0903ed    	mov	x13, x9
1000058f8: eb0a011f    	cmp	x8, x10
1000058fc: 54fffb28    	b.hi	0x100005860 <_decode_string+0x6c>
100005900: 8b080908    	add	x8, x8, x8, lsl #2
100005904: d37ff908    	lsl	x8, x8, #1
100005908: 0b0b01ad    	add	w13, w13, w11
10000590c: ab0d011f    	cmn	x8, x13
100005910: 54fffa82    	b.hs	0x100005860 <_decode_string+0x6c>
100005914: 8b0801a8    	add	x8, x13, x8
100005918: 91000595    	add	x21, x12, #0x1
10000591c: 8b0c028c    	add	x12, x20, x12
100005920: 3940058d    	ldrb	w13, [x12, #0x1]
100005924: 5100e9ae    	sub	w14, w13, #0x3a
100005928: aa1503ec    	mov	x12, x21
10000592c: 31002ddf    	cmn	w14, #0xb
100005930: 54fffe48    	b.hi	0x1000058f8 <_decode_string+0x104>
100005934: f10006bf    	cmp	x21, #0x1
100005938: 5280060a    	mov	w10, #0x30              ; =48
10000593c: 7a4a1120    	ccmp	w9, w10, #0x0, ne
100005940: 128003e0    	mov	w0, #-0x20              ; =-32
100005944: 54fff940    	b.eq	0x10000586c <_decode_string+0x78>
100005948: d360fd09    	lsr	x9, x8, #32
10000594c: b5fff909    	cbnz	x9, 0x10000586c <_decode_string+0x78>
100005950: 8b150280    	add	x0, x20, x21
100005954: b9005268    	str	w8, [x19, #0x50]
100005958: d0000001    	adrp	x1, 0x100007000 <_strncmp+0x100007000>
10000595c: 913b3c21    	add	x1, x1, #0xecf
100005960: 52800062    	mov	w2, #0x3                ; =3
100005964: 940005d4    	bl	0x1000070b4 <_strncmp+0x1000070b4>
100005968: 35fff7c0    	cbnz	w0, 0x100005860 <_decode_string+0x6c>
10000596c: 8b150288    	add	x8, x20, x21
100005970: 91000d00    	add	x0, x8, #0x3
100005974: 910023e1    	add	x1, sp, #0x8
100005978: 94000063    	bl	0x100005b04 <_decode_decimal>
10000597c: b4fff720    	cbz	x0, 0x100005860 <_decode_string+0x6c>
100005980: f94007e8    	ldr	x8, [sp, #0x8]
100005984: d360fd09    	lsr	x9, x8, #32
100005988: b5fff6c9    	cbnz	x9, 0x100005860 <_decode_string+0x6c>
10000598c: aa0003f4    	mov	x20, x0
100005990: b9004e68    	str	w8, [x19, #0x4c]
100005994: d0000001    	adrp	x1, 0x100007000 <_strncmp+0x100007000>
100005998: 913b4c21    	add	x1, x1, #0xed3
10000599c: 52800062    	mov	w2, #0x3                ; =3
1000059a0: 940005c5    	bl	0x1000070b4 <_strncmp+0x1000070b4>
1000059a4: 35fff5e0    	cbnz	w0, 0x100005860 <_decode_string+0x6c>
1000059a8: 91000e80    	add	x0, x20, #0x3
1000059ac: 910023e1    	add	x1, sp, #0x8
1000059b0: 94000055    	bl	0x100005b04 <_decode_decimal>
1000059b4: b4fff560    	cbz	x0, 0x100005860 <_decode_string+0x6c>
1000059b8: f94007e8    	ldr	x8, [sp, #0x8]
1000059bc: d360fd09    	lsr	x9, x8, #32
1000059c0: b5fff509    	cbnz	x9, 0x100005860 <_decode_string+0x6c>
1000059c4: 290aa268    	stp	w8, w8, [x19, #0x54]
1000059c8: 39400008    	ldrb	w8, [x0]
1000059cc: 7100911f    	cmp	w8, #0x24
1000059d0: 54fff481    	b.ne	0x100005860 <_decode_string+0x6c>
1000059d4: 91000402    	add	x2, x0, #0x1
1000059d8: f90007f9    	str	x25, [sp, #0x8]
1000059dc: f9401260    	ldr	x0, [x19, #0x20]
1000059e0: 910023e1    	add	x1, sp, #0x8
1000059e4: 94000069    	bl	0x100005b88 <_from_base64>
1000059e8: b4fff3c0    	cbz	x0, 0x100005860 <_decode_string+0x6c>
1000059ec: f94007e8    	ldr	x8, [sp, #0x8]
1000059f0: d360fd09    	lsr	x9, x8, #32
1000059f4: b5fff369    	cbnz	x9, 0x100005860 <_decode_string+0x6c>
1000059f8: b9002a68    	str	w8, [x19, #0x28]
1000059fc: 39400008    	ldrb	w8, [x0]
100005a00: 7100911f    	cmp	w8, #0x24
100005a04: 54fff2e1    	b.ne	0x100005860 <_decode_string+0x6c>
100005a08: 91000402    	add	x2, x0, #0x1
100005a0c: f90007f8    	str	x24, [sp, #0x8]
100005a10: f9400260    	ldr	x0, [x19]
100005a14: 910023e1    	add	x1, sp, #0x8
100005a18: 9400005c    	bl	0x100005b88 <_from_base64>
100005a1c: b4fff220    	cbz	x0, 0x100005860 <_decode_string+0x6c>
100005a20: f94007e8    	ldr	x8, [sp, #0x8]
100005a24: d360fd09    	lsr	x9, x8, #32
100005a28: b5fff1c9    	cbnz	x9, 0x100005860 <_decode_string+0x6c>
100005a2c: aa0003f4    	mov	x20, x0
100005a30: b9000a68    	str	w8, [x19, #0x8]
100005a34: f9001a7f    	str	xzr, [x19, #0x30]
100005a38: b9003a7f    	str	wzr, [x19, #0x38]
100005a3c: f900227f    	str	xzr, [x19, #0x40]
100005a40: b9004a7f    	str	wzr, [x19, #0x48]
100005a44: a9067e7f    	stp	xzr, xzr, [x19, #0x60]
100005a48: b900727f    	str	wzr, [x19, #0x70]
100005a4c: aa1303e0    	mov	x0, x19
100005a50: 97fffa1b    	bl	0x1000042bc <_validate_inputs>
100005a54: 35fff0c0    	cbnz	w0, 0x10000586c <_decode_string+0x78>
100005a58: 39400288    	ldrb	w8, [x20]
100005a5c: 128003e9    	mov	w9, #-0x20              ; =-32
100005a60: 7100011f    	cmp	w8, #0x0
100005a64: 1a8903e0    	csel	w0, wzr, w9, eq
100005a68: 17ffff81    	b	0x10000586c <_decode_string+0x78>
100005a6c: 39400ec9    	ldrb	w9, [x22, #0x3]
100005a70: 5100e928    	sub	w8, w9, #0x3a
100005a74: 3100291f    	cmn	w8, #0xa
100005a78: 54ffef43    	b.lo	0x100005860 <_decode_string+0x6c>
100005a7c: d2800008    	mov	x8, #0x0                ; =0
100005a80: d280000d    	mov	x13, #0x0               ; =0
100005a84: b201e7ea    	mov	x10, #-0x6666666666666667 ; =-7378697629483820647
100005a88: f2e3332a    	movk	x10, #0x1999, lsl #48
100005a8c: 128005eb    	mov	w11, #-0x30             ; =-48
100005a90: 8b15028c    	add	x12, x20, x21
100005a94: aa0903ef    	mov	x15, x9
100005a98: eb0a011f    	cmp	x8, x10
100005a9c: 54ffee28    	b.hi	0x100005860 <_decode_string+0x6c>
100005aa0: 8b080908    	add	x8, x8, x8, lsl #2
100005aa4: d37ff908    	lsl	x8, x8, #1
100005aa8: 0b0b01ee    	add	w14, w15, w11
100005aac: ab0e011f    	cmn	x8, x14
100005ab0: 54ffed82    	b.hs	0x100005860 <_decode_string+0x6c>
100005ab4: 8b0801c8    	add	x8, x14, x8
100005ab8: 910005ae    	add	x14, x13, #0x1
100005abc: 8b0d018d    	add	x13, x12, x13
100005ac0: 394015af    	ldrb	w15, [x13, #0x5]
100005ac4: 5100e9f0    	sub	w16, w15, #0x3a
100005ac8: aa0e03ed    	mov	x13, x14
100005acc: 31002e1f    	cmn	w16, #0xb
100005ad0: 54fffe48    	b.hi	0x100005a98 <_decode_string+0x2a4>
100005ad4: f10005df    	cmp	x14, #0x1
100005ad8: 5280060a    	mov	w10, #0x30              ; =48
100005adc: 7a4a1120    	ccmp	w9, w10, #0x0, ne
100005ae0: 128003e0    	mov	w0, #-0x20              ; =-32
100005ae4: 54ffec40    	b.eq	0x10000586c <_decode_string+0x78>
100005ae8: d360fd09    	lsr	x9, x8, #32
100005aec: b5ffec09    	cbnz	x9, 0x10000586c <_decode_string+0x78>
100005af0: 8b150289    	add	x9, x20, x21
100005af4: 8b0e0129    	add	x9, x9, x14
100005af8: 91001136    	add	x22, x9, #0x4
100005afc: b9005e68    	str	w8, [x19, #0x5c]
100005b00: 17ffff6b    	b	0x1000058ac <_decode_string+0xb8>

0000000100005b04 <_decode_decimal>:
100005b04: 39400008    	ldrb	w8, [x0]
100005b08: 5100e909    	sub	w9, w8, #0x3a
100005b0c: 3100293f    	cmn	w9, #0xa
100005b10: 54000062    	b.hs	0x100005b1c <_decode_decimal+0x18>
100005b14: d2800000    	mov	x0, #0x0                ; =0
100005b18: d65f03c0    	ret
100005b1c: d2800009    	mov	x9, #0x0                ; =0
100005b20: d280000b    	mov	x11, #0x0               ; =0
100005b24: b201e7ea    	mov	x10, #-0x6666666666666667 ; =-7378697629483820647
100005b28: f2e3332a    	movk	x10, #0x1999, lsl #48
100005b2c: aa0803ed    	mov	x13, x8
100005b30: eb0a013f    	cmp	x9, x10
100005b34: 54ffff08    	b.hi	0x100005b14 <_decode_decimal+0x10>
100005b38: 5100c1ac    	sub	w12, w13, #0x30
100005b3c: 8b090929    	add	x9, x9, x9, lsl #2
100005b40: d37ff929    	lsl	x9, x9, #1
100005b44: ab0c013f    	cmn	x9, x12
100005b48: 54fffe62    	b.hs	0x100005b14 <_decode_decimal+0x10>
100005b4c: 8b090189    	add	x9, x12, x9
100005b50: 9100056c    	add	x12, x11, #0x1
100005b54: 8b0b000b    	add	x11, x0, x11
100005b58: 3940056d    	ldrb	w13, [x11, #0x1]
100005b5c: 5100e9ae    	sub	w14, w13, #0x3a
100005b60: aa0c03eb    	mov	x11, x12
100005b64: 31002ddf    	cmn	w14, #0xb
100005b68: 54fffe48    	b.hi	0x100005b30 <_decode_decimal+0x2c>
100005b6c: f100059f    	cmp	x12, #0x1
100005b70: 54000060    	b.eq	0x100005b7c <_decode_decimal+0x78>
100005b74: 7100c11f    	cmp	w8, #0x30
100005b78: 54fffce0    	b.eq	0x100005b14 <_decode_decimal+0x10>
100005b7c: 8b0c0000    	add	x0, x0, x12
100005b80: f9000029    	str	x9, [x1]
100005b84: d65f03c0    	ret

0000000100005b88 <_from_base64>:
100005b88: d2800008    	mov	x8, #0x0                ; =0
100005b8c: 52800009    	mov	w9, #0x0                ; =0
100005b90: 5280000a    	mov	w10, #0x0               ; =0
100005b94: d000000b    	adrp	x11, 0x100007000 <_strncmp+0x100007000>
100005b98: fd420560    	ldr	d0, [x11, #0x408]
100005b9c: d000000b    	adrp	x11, 0x100007000 <_strncmp+0x100007000>
100005ba0: fd420961    	ldr	d1, [x11, #0x410]
100005ba4: 2f00e622    	movi	d2, #0x0000ff000000ff
100005ba8: d000000b    	adrp	x11, 0x100007000 <_strncmp+0x100007000>
100005bac: fd420d63    	ldr	d3, [x11, #0x418]
100005bb0: 52800b4b    	mov	w11, #0x5a              ; =90
100005bb4: d000000c    	adrp	x12, 0x100007000 <_strncmp+0x100007000>
100005bb8: fd421184    	ldr	d4, [x12, #0x420]
100005bbc: 1280000c    	mov	w12, #-0x1              ; =-1
100005bc0: 0f000425    	movi.2s	v5, #0x1
100005bc4: d000000d    	adrp	x13, 0x100007000 <_strncmp+0x100007000>
100005bc8: fd4215a6    	ldr	d6, [x13, #0x428]
100005bcc: 529ff7cd    	mov	w13, #0xffbe            ; =65470
100005bd0: 14000009    	b	0x100005bf4 <_from_base64+0x6c>
100005bd4: aa0e03e2    	mov	x2, x14
100005bd8: f940002e    	ldr	x14, [x1]
100005bdc: eb0e011f    	cmp	x8, x14
100005be0: 54000b62    	b.hs	0x100005d4c <_from_base64+0x1c4>
100005be4: 5100094a    	sub	w10, w10, #0x2
100005be8: 1aca252e    	lsr	w14, w9, w10
100005bec: 3828680e    	strb	w14, [x0, x8]
100005bf0: 91000508    	add	x8, x8, #0x1
100005bf4: 39c0004e    	ldrsb	w14, [x2]
100005bf8: 510105cf    	sub	w15, w14, #0x41
100005bfc: 4b0e0170    	sub	w16, w11, w14
100005c00: 4a502190    	eor	w16, w12, w16, lsr #8
100005c04: 0a6f2210    	bic	w16, w16, w15, lsr #8
100005c08: 0a0f020f    	and	w15, w16, w15
100005c0c: 0e040dc7    	dup.2s	v7, w14
100005c10: 0ea084f0    	add.2s	v16, v7, v0
100005c14: 2f380610    	ushr.2s	v16, v16, #0x8
100005c18: 2ea78431    	sub.2s	v17, v1, v7
100005c1c: 2f380631    	ushr.2s	v17, v17, #0x8
100005c20: 0ea384f2    	add.2s	v18, v7, v3
100005c24: 0e701e50    	bic.8b	v16, v18, v16
100005c28: 0e711e10    	bic.8b	v16, v16, v17
100005c2c: 0e221e10    	and.8b	v16, v16, v2
100005c30: 2e241ce7    	eor.8b	v7, v7, v4
100005c34: 0ea584e7    	add.2s	v7, v7, v5
100005c38: 2f3804e7    	ushr.2s	v7, v7, #0x8
100005c3c: 0e671cc7    	bic.8b	v7, v6, v7
100005c40: 0eb01ce7    	orr.8b	v7, v7, v16
100005c44: 0e0c04f0    	dup.2s	v16, v7[1]
100005c48: 12001def    	and	w15, w15, #0xff
100005c4c: 0eb01ce7    	orr.8b	v7, v7, v16
100005c50: 1e2600f0    	fmov	w16, s7
100005c54: 2a0f020f    	orr	w15, w16, w15
100005c58: 4b0f03f0    	neg	w16, w15
100005c5c: 4a0d01ce    	eor	w14, w14, w13
100005c60: 110005ce    	add	w14, w14, #0x1
100005c64: 53087dce    	lsr	w14, w14, #8
100005c68: 0a7021ce    	bic	w14, w14, w16, lsr #8
100005c6c: 12001dce    	and	w14, w14, #0xff
100005c70: 2a0f01cf    	orr	w15, w14, w15
100005c74: 7103fdff    	cmp	w15, #0xff
100005c78: 540005e0    	b.eq	0x100005d34 <_from_base64+0x1ac>
100005c7c: 9100044e    	add	x14, x2, #0x1
100005c80: 0b0919e9    	add	w9, w15, w9, lsl #6
100005c84: 7100055f    	cmp	w10, #0x1
100005c88: 54fffa68    	b.hi	0x100005bd4 <_from_base64+0x4c>
100005c8c: 1100194a    	add	w10, w10, #0x6
100005c90: 39c001cf    	ldrsb	w15, [x14]
100005c94: 510105f0    	sub	w16, w15, #0x41
100005c98: 4b0f0171    	sub	w17, w11, w15
100005c9c: 4a512191    	eor	w17, w12, w17, lsr #8
100005ca0: 0a702231    	bic	w17, w17, w16, lsr #8
100005ca4: 0a100230    	and	w16, w17, w16
100005ca8: 0e040de7    	dup.2s	v7, w15
100005cac: 0ea084f0    	add.2s	v16, v7, v0
100005cb0: 2f380610    	ushr.2s	v16, v16, #0x8
100005cb4: 2ea78431    	sub.2s	v17, v1, v7
100005cb8: 2f380631    	ushr.2s	v17, v17, #0x8
100005cbc: 0ea384f2    	add.2s	v18, v7, v3
100005cc0: 0e701e50    	bic.8b	v16, v18, v16
100005cc4: 0e711e10    	bic.8b	v16, v16, v17
100005cc8: 0e221e10    	and.8b	v16, v16, v2
100005ccc: 2e241ce7    	eor.8b	v7, v7, v4
100005cd0: 0ea584e7    	add.2s	v7, v7, v5
100005cd4: 2f3804e7    	ushr.2s	v7, v7, #0x8
100005cd8: 0e671cc7    	bic.8b	v7, v6, v7
100005cdc: 0eb01ce7    	orr.8b	v7, v7, v16
100005ce0: 0e0c04f0    	dup.2s	v16, v7[1]
100005ce4: 12001e10    	and	w16, w16, #0xff
100005ce8: 0eb01ce7    	orr.8b	v7, v7, v16
100005cec: 1e2600f1    	fmov	w17, s7
100005cf0: 2a100230    	orr	w16, w17, w16
100005cf4: 4b1003f1    	neg	w17, w16
100005cf8: 4a0d01ef    	eor	w15, w15, w13
100005cfc: 110005ef    	add	w15, w15, #0x1
100005d00: 53087def    	lsr	w15, w15, #8
100005d04: 0a7121ef    	bic	w15, w15, w17, lsr #8
100005d08: 12001def    	and	w15, w15, #0xff
100005d0c: 2a1001ef    	orr	w15, w15, w16
100005d10: 7103fdff    	cmp	w15, #0xff
100005d14: 540000e0    	b.eq	0x100005d30 <_from_base64+0x1a8>
100005d18: 91000842    	add	x2, x2, #0x2
100005d1c: 0b0919e9    	add	w9, w15, w9, lsl #6
100005d20: f940002e    	ldr	x14, [x1]
100005d24: eb0e011f    	cmp	x8, x14
100005d28: 54fff5e3    	b.lo	0x100005be4 <_from_base64+0x5c>
100005d2c: 14000008    	b	0x100005d4c <_from_base64+0x1c4>
100005d30: aa0e03e2    	mov	x2, x14
100005d34: 7100115f    	cmp	w10, #0x4
100005d38: 540000a8    	b.hi	0x100005d4c <_from_base64+0x1c4>
100005d3c: 1280000b    	mov	w11, #-0x1              ; =-1
100005d40: 1aca216a    	lsl	w10, w11, w10
100005d44: 6a2a013f    	bics	wzr, w9, w10
100005d48: 54000060    	b.eq	0x100005d54 <_from_base64+0x1cc>
100005d4c: d2800000    	mov	x0, #0x0                ; =0
100005d50: d65f03c0    	ret
100005d54: f9000028    	str	x8, [x1]
100005d58: aa0203e0    	mov	x0, x2
100005d5c: d65f03c0    	ret

0000000100005d60 <_encode_string>:
100005d60: d101c3ff    	sub	sp, sp, #0x70
100005d64: a9035ff8    	stp	x24, x23, [sp, #0x30]
100005d68: a90457f6    	stp	x22, x21, [sp, #0x40]
100005d6c: a9054ff4    	stp	x20, x19, [sp, #0x50]
100005d70: a9067bfd    	stp	x29, x30, [sp, #0x60]
100005d74: 910183fd    	add	x29, sp, #0x60
100005d78: aa0203f3    	mov	x19, x2
100005d7c: aa0103f6    	mov	x22, x1
100005d80: aa0003f4    	mov	x20, x0
100005d84: f0000008    	adrp	x8, 0x100008000 <_strncmp+0x100008000>
100005d88: f9401108    	ldr	x8, [x8, #0x20]
100005d8c: f9400108    	ldr	x8, [x8]
100005d90: f90017e8    	str	x8, [sp, #0x28]
100005d94: aa0303e0    	mov	x0, x3
100005d98: 52800001    	mov	w1, #0x0                ; =0
100005d9c: 97fff26c    	bl	0x10000274c <_argon2_type2string>
100005da0: aa0003f5    	mov	x21, x0
100005da4: aa1303e0    	mov	x0, x19
100005da8: 97fff945    	bl	0x1000042bc <_validate_inputs>
100005dac: b40011f5    	cbz	x21, 0x100005fe8 <_encode_string+0x288>
100005db0: 350011e0    	cbnz	w0, 0x100005fec <_encode_string+0x28c>
100005db4: f1000adf    	cmp	x22, #0x2
100005db8: 54001183    	b.lo	0x100005fe8 <_encode_string+0x288>
100005dbc: 52800488    	mov	w8, #0x24               ; =36
100005dc0: 79000288    	strh	w8, [x20]
100005dc4: d10006d7    	sub	x23, x22, #0x1
100005dc8: aa1503e0    	mov	x0, x21
100005dcc: 940004b7    	bl	0x1000070a8 <_strncmp+0x1000070a8>
100005dd0: eb0002f8    	subs	x24, x23, x0
100005dd4: 540010a9    	b.ls	0x100005fe8 <_encode_string+0x288>
100005dd8: aa0003f6    	mov	x22, x0
100005ddc: 91000694    	add	x20, x20, #0x1
100005de0: 91000402    	add	x2, x0, #0x1
100005de4: aa1403e0    	mov	x0, x20
100005de8: aa1503e1    	mov	x1, x21
100005dec: 94000488    	bl	0x10000700c <_strncmp+0x10000700c>
100005df0: f100131f    	cmp	x24, #0x4
100005df4: 54000fa3    	b.lo	0x100005fe8 <_encode_string+0x288>
100005df8: 528da497    	mov	w23, #0x6d24            ; =27940
100005dfc: 72a007b7    	movk	w23, #0x3d, lsl #16
100005e00: 8b160295    	add	x21, x20, x22
100005e04: 112402e8    	add	w8, w23, #0x900
100005e08: b90002a8    	str	w8, [x21]
100005e0c: d1000f16    	sub	x22, x24, #0x3
100005e10: b9405e68    	ldr	w8, [x19, #0x5c]
100005e14: f90003e8    	str	x8, [sp]
100005e18: d0000003    	adrp	x3, 0x100007000 <_strncmp+0x100007000>
100005e1c: 913b5c63    	add	x3, x3, #0xed7
100005e20: 91002be0    	add	x0, sp, #0xa
100005e24: 52800001    	mov	w1, #0x0                ; =0
100005e28: 528003c2    	mov	w2, #0x1e               ; =30
100005e2c: 94000454    	bl	0x100006f7c <_strncmp+0x100006f7c>
100005e30: 91002be0    	add	x0, sp, #0xa
100005e34: 9400049d    	bl	0x1000070a8 <_strncmp+0x1000070a8>
100005e38: eb0002d6    	subs	x22, x22, x0
100005e3c: 54000d69    	b.ls	0x100005fe8 <_encode_string+0x288>
100005e40: aa0003f4    	mov	x20, x0
100005e44: 91000eb5    	add	x21, x21, #0x3
100005e48: 91000402    	add	x2, x0, #0x1
100005e4c: 91002be1    	add	x1, sp, #0xa
100005e50: aa1503e0    	mov	x0, x21
100005e54: 9400046e    	bl	0x10000700c <_strncmp+0x10000700c>
100005e58: f10012df    	cmp	x22, #0x4
100005e5c: 54000c63    	b.lo	0x100005fe8 <_encode_string+0x288>
100005e60: 8b1402b5    	add	x21, x21, x20
100005e64: b90002b7    	str	w23, [x21]
100005e68: d1000ed6    	sub	x22, x22, #0x3
100005e6c: b9405268    	ldr	w8, [x19, #0x50]
100005e70: f90003e8    	str	x8, [sp]
100005e74: d0000003    	adrp	x3, 0x100007000 <_strncmp+0x100007000>
100005e78: 913b5c63    	add	x3, x3, #0xed7
100005e7c: 91002be0    	add	x0, sp, #0xa
100005e80: 52800001    	mov	w1, #0x0                ; =0
100005e84: 528003c2    	mov	w2, #0x1e               ; =30
100005e88: 9400043d    	bl	0x100006f7c <_strncmp+0x100006f7c>
100005e8c: 91002be0    	add	x0, sp, #0xa
100005e90: 94000486    	bl	0x1000070a8 <_strncmp+0x1000070a8>
100005e94: eb0002d6    	subs	x22, x22, x0
100005e98: 54000a89    	b.ls	0x100005fe8 <_encode_string+0x288>
100005e9c: aa0003f4    	mov	x20, x0
100005ea0: 91000eb5    	add	x21, x21, #0x3
100005ea4: 91000402    	add	x2, x0, #0x1
100005ea8: 91002be1    	add	x1, sp, #0xa
100005eac: aa1503e0    	mov	x0, x21
100005eb0: 94000457    	bl	0x10000700c <_strncmp+0x10000700c>
100005eb4: f10012df    	cmp	x22, #0x4
100005eb8: 54000983    	b.lo	0x100005fe8 <_encode_string+0x288>
100005ebc: 8b1402b5    	add	x21, x21, x20
100005ec0: 111c22e8    	add	w8, w23, #0x708
100005ec4: b90002a8    	str	w8, [x21]
100005ec8: d1000ed6    	sub	x22, x22, #0x3
100005ecc: b9404e68    	ldr	w8, [x19, #0x4c]
100005ed0: f90003e8    	str	x8, [sp]
100005ed4: d0000003    	adrp	x3, 0x100007000 <_strncmp+0x100007000>
100005ed8: 913b5c63    	add	x3, x3, #0xed7
100005edc: 91002be0    	add	x0, sp, #0xa
100005ee0: 52800001    	mov	w1, #0x0                ; =0
100005ee4: 528003c2    	mov	w2, #0x1e               ; =30
100005ee8: 94000425    	bl	0x100006f7c <_strncmp+0x100006f7c>
100005eec: 91002be0    	add	x0, sp, #0xa
100005ef0: 9400046e    	bl	0x1000070a8 <_strncmp+0x1000070a8>
100005ef4: eb0002d6    	subs	x22, x22, x0
100005ef8: 54000789    	b.ls	0x100005fe8 <_encode_string+0x288>
100005efc: aa0003f4    	mov	x20, x0
100005f00: 91000eb5    	add	x21, x21, #0x3
100005f04: 91000402    	add	x2, x0, #0x1
100005f08: 91002be1    	add	x1, sp, #0xa
100005f0c: aa1503e0    	mov	x0, x21
100005f10: 9400043f    	bl	0x10000700c <_strncmp+0x10000700c>
100005f14: f10012df    	cmp	x22, #0x4
100005f18: 54000683    	b.lo	0x100005fe8 <_encode_string+0x288>
100005f1c: 8b1402b5    	add	x21, x21, x20
100005f20: 110c22e8    	add	w8, w23, #0x308
100005f24: b90002a8    	str	w8, [x21]
100005f28: d1000ed6    	sub	x22, x22, #0x3
100005f2c: b9405668    	ldr	w8, [x19, #0x54]
100005f30: f90003e8    	str	x8, [sp]
100005f34: d0000003    	adrp	x3, 0x100007000 <_strncmp+0x100007000>
100005f38: 913b5c63    	add	x3, x3, #0xed7
100005f3c: 91002be0    	add	x0, sp, #0xa
100005f40: 52800001    	mov	w1, #0x0                ; =0
100005f44: 528003c2    	mov	w2, #0x1e               ; =30
100005f48: 9400040d    	bl	0x100006f7c <_strncmp+0x100006f7c>
100005f4c: 91002be0    	add	x0, sp, #0xa
100005f50: 94000456    	bl	0x1000070a8 <_strncmp+0x1000070a8>
100005f54: eb0002d6    	subs	x22, x22, x0
100005f58: 54000489    	b.ls	0x100005fe8 <_encode_string+0x288>
100005f5c: aa0003f4    	mov	x20, x0
100005f60: 91000eb5    	add	x21, x21, #0x3
100005f64: 91000402    	add	x2, x0, #0x1
100005f68: 91002be1    	add	x1, sp, #0xa
100005f6c: aa1503e0    	mov	x0, x21
100005f70: 94000427    	bl	0x10000700c <_strncmp+0x10000700c>
100005f74: f1000adf    	cmp	x22, #0x2
100005f78: 54000383    	b.lo	0x100005fe8 <_encode_string+0x288>
100005f7c: 8b1402b4    	add	x20, x21, x20
100005f80: 52800488    	mov	w8, #0x24               ; =36
100005f84: 78001688    	strh	w8, [x20], #0x1
100005f88: d10006d5    	sub	x21, x22, #0x1
100005f8c: f9401262    	ldr	x2, [x19, #0x20]
100005f90: b9402a63    	ldr	w3, [x19, #0x28]
100005f94: aa1403e0    	mov	x0, x20
100005f98: aa1503e1    	mov	x1, x21
100005f9c: 94000021    	bl	0x100006020 <_to_base64>
100005fa0: aa0003e8    	mov	x8, x0
100005fa4: 128003c0    	mov	w0, #-0x1f              ; =-31
100005fa8: b100051f    	cmn	x8, #0x1
100005fac: 54000200    	b.eq	0x100005fec <_encode_string+0x28c>
100005fb0: cb0802a9    	sub	x9, x21, x8
100005fb4: f100093f    	cmp	x9, #0x2
100005fb8: 540001a3    	b.lo	0x100005fec <_encode_string+0x28c>
100005fbc: 8b080280    	add	x0, x20, x8
100005fc0: 52800488    	mov	w8, #0x24               ; =36
100005fc4: 78001408    	strh	w8, [x0], #0x1
100005fc8: d1000521    	sub	x1, x9, #0x1
100005fcc: f9400262    	ldr	x2, [x19]
100005fd0: b9400a63    	ldr	w3, [x19, #0x8]
100005fd4: 94000013    	bl	0x100006020 <_to_base64>
100005fd8: b100041f    	cmn	x0, #0x1
100005fdc: 128003c8    	mov	w8, #-0x1f              ; =-31
100005fe0: 1a9f0100    	csel	w0, w8, wzr, eq
100005fe4: 14000002    	b	0x100005fec <_encode_string+0x28c>
100005fe8: 128003c0    	mov	w0, #-0x1f              ; =-31
100005fec: f94017e8    	ldr	x8, [sp, #0x28]
100005ff0: f0000009    	adrp	x9, 0x100008000 <_strncmp+0x100008000>
100005ff4: f9401129    	ldr	x9, [x9, #0x20]
100005ff8: f9400129    	ldr	x9, [x9]
100005ffc: eb08013f    	cmp	x9, x8
100006000: 540000e1    	b.ne	0x10000601c <_encode_string+0x2bc>
100006004: a9467bfd    	ldp	x29, x30, [sp, #0x60]
100006008: a9454ff4    	ldp	x20, x19, [sp, #0x50]
10000600c: a94457f6    	ldp	x22, x21, [sp, #0x40]
100006010: a9435ff8    	ldp	x24, x23, [sp, #0x30]
100006014: 9101c3ff    	add	sp, sp, #0x70
100006018: d65f03c0    	ret
10000601c: 940003db    	bl	0x100006f88 <_strncmp+0x100006f88>

0000000100006020 <_to_base64>:
100006020: aa0003e8    	mov	x8, x0
100006024: b201f3e9    	mov	x9, #-0x5555555555555556 ; =-6148914691236517206
100006028: f2955569    	movk	x9, #0xaaab
10000602c: 9bc97c69    	umulh	x9, x3, x9
100006030: d341fd29    	lsr	x9, x9, #1
100006034: d37ef520    	lsl	x0, x9, #2
100006038: 8b090529    	add	x9, x9, x9, lsl #1
10000603c: cb090069    	sub	x9, x3, x9
100006040: f100053f    	cmp	x9, #0x1
100006044: 54000080    	b.eq	0x100006054 <_to_base64+0x34>
100006048: f100093f    	cmp	x9, #0x2
10000604c: 54000061    	b.ne	0x100006058 <_to_base64+0x38>
100006050: b2400000    	orr	x0, x0, #0x1
100006054: 91000800    	add	x0, x0, #0x2
100006058: eb01001f    	cmp	x0, x1
10000605c: 54001ea2    	b.hs	0x100006430 <_to_base64+0x410>
100006060: d10283ff    	sub	sp, sp, #0xa0
100006064: 6d043bef    	stp	d15, d14, [sp, #0x40]
100006068: 6d0533ed    	stp	d13, d12, [sp, #0x50]
10000606c: 6d062beb    	stp	d11, d10, [sp, #0x60]
100006070: 6d0723e9    	stp	d9, d8, [sp, #0x70]
100006074: a90857f6    	stp	x22, x21, [sp, #0x80]
100006078: a9094ff4    	stp	x20, x19, [sp, #0x90]
10000607c: b4002243    	cbz	x3, 0x1000064c4 <_to_base64+0x4a4>
100006080: 5280000c    	mov	w12, #0x0               ; =0
100006084: 52800009    	mov	w9, #0x0                ; =0
100006088: b000000a    	adrp	x10, 0x100007000 <_strncmp+0x100007000>
10000608c: 3dc10d40    	ldr	q0, [x10, #0x430]
100006090: 3d800fe0    	str	q0, [sp, #0x30]
100006094: b000000a    	adrp	x10, 0x100007000 <_strncmp+0x100007000>
100006098: 3dc11140    	ldr	q0, [x10, #0x440]
10000609c: 3d800be0    	str	q0, [sp, #0x20]
1000060a0: 5295556a    	mov	w10, #0xaaab            ; =43691
1000060a4: 72b5554a    	movk	w10, #0xaaaa, lsl #16
1000060a8: b000000b    	adrp	x11, 0x100007000 <_strncmp+0x100007000>
1000060ac: 3dc11560    	ldr	q0, [x11, #0x450]
1000060b0: 3d8007e0    	str	q0, [sp, #0x10]
1000060b4: 529ffccb    	mov	w11, #0xffe6            ; =65510
1000060b8: b000000d    	adrp	x13, 0x100007000 <_strncmp+0x100007000>
1000060bc: 3dc119a0    	ldr	q0, [x13, #0x460]
1000060c0: 3d8003e0    	str	q0, [sp]
1000060c4: 529ff98d    	mov	w13, #0xffcc            ; =65484
1000060c8: 529ff84e    	mov	w14, #0xffc2            ; =65474
1000060cc: 4f0004c2    	movi.4s	v2, #0x6
1000060d0: 5280056f    	mov	w15, #0x2b              ; =43
1000060d4: b0000010    	adrp	x16, 0x100007000 <_strncmp+0x100007000>
1000060d8: 3dc11e06    	ldr	q6, [x16, #0x470]
1000060dc: 5287f830    	mov	w16, #0x3fc1            ; =16321
1000060e0: 528005f1    	mov	w17, #0x2f              ; =47
1000060e4: 4f0107e4    	movi.4s	v4, #0x3f
1000060e8: 4e040d67    	dup.4s	v7, w11
1000060ec: 4f020425    	movi.4s	v5, #0x41
1000060f0: 4e040db1    	dup.4s	v17, w13
1000060f4: 4f0204f6    	movi.4s	v22, #0x47
1000060f8: 4e040dd3    	dup.4s	v19, w14
1000060fc: 4e040e15    	dup.4s	v21, w16
100006100: 4f0105f2    	movi.4s	v18, #0x2f
100006104: 6f0207f4    	mvni.4s	v20, #0x5f
100006108: 4f070790    	movi.4s	v16, #0xfc
10000610c: 1400000f    	b	0x100006148 <_to_base64+0x128>
100006110: 321f0667    	orr	w7, w19, #0x6
100006114: 0b070087    	add	w7, w4, w7
100006118: 8b0800a8    	add	x8, x5, x8
10000611c: d1000504    	sub	x4, x8, #0x1
100006120: aa0603e8    	mov	x8, x6
100006124: 91000442    	add	x2, x2, #0x1
100006128: f1000463    	subs	x3, x3, #0x1
10000612c: 540000e1    	b.ne	0x100006148 <_to_base64+0x128>
100006130: 140000c2    	b	0x100006438 <_to_base64+0x418>
100006134: 11001987    	add	w7, w12, #0x6
100006138: d1000504    	sub	x4, x8, #0x1
10000613c: 91000442    	add	x2, x2, #0x1
100006140: f1000463    	subs	x3, x3, #0x1
100006144: 540017a0    	b.eq	0x100006438 <_to_base64+0x418>
100006148: 39400041    	ldrb	w1, [x2]
10000614c: 2a092029    	orr	w9, w1, w9, lsl #8
100006150: 321d0184    	orr	w4, w12, #0x8
100006154: 5100188c    	sub	w12, w4, #0x6
100006158: 7101699f    	cmp	w12, #0x5a
10000615c: 54000062    	b.hs	0x100006168 <_to_base64+0x148>
100006160: aa0403ec    	mov	x12, x4
100006164: 14000096    	b	0x1000063bc <_to_base64+0x39c>
100006168: 9baa7d8c    	umull	x12, w12, w10
10000616c: d362fd8c    	lsr	x12, x12, #34
100006170: 11000587    	add	w7, w12, #0x1
100006174: 927c68e5    	and	x5, x7, #0x7ffffff0
100006178: 531f78ac    	lsl	w12, w5, #1
10000617c: 4b050d93    	sub	w19, w12, w5, lsl #3
100006180: 0b13008c    	add	w12, w4, w19
100006184: 8b050106    	add	x6, x8, x5
100006188: 4e040c80    	dup.4s	v0, w4
10000618c: 3dc00fe1    	ldr	q1, [sp, #0x30]
100006190: 4ea1841a    	add.4s	v26, v0, v1
100006194: 3dc00be1    	ldr	q1, [sp, #0x20]
100006198: 4ea1841b    	add.4s	v27, v0, v1
10000619c: 3dc007e1    	ldr	q1, [sp, #0x10]
1000061a0: 4ea1841c    	add.4s	v28, v0, v1
1000061a4: 3dc003e1    	ldr	q1, [sp]
1000061a8: 4ea1841d    	add.4s	v29, v0, v1
1000061ac: 4e040d3e    	dup.4s	v30, w9
1000061b0: aa0503f4    	mov	x20, x5
1000061b4: aa0803f5    	mov	x21, x8
1000061b8: 6ebd8440    	sub.4s	v0, v2, v29
1000061bc: 6ea047c0    	ushl.4s	v0, v30, v0
1000061c0: 6ebc845f    	sub.4s	v31, v2, v28
1000061c4: 6ebf47c9    	ushl.4s	v9, v30, v31
1000061c8: 6ebb845f    	sub.4s	v31, v2, v27
1000061cc: 6ebf47c8    	ushl.4s	v8, v30, v31
1000061d0: 6eba845f    	sub.4s	v31, v2, v26
1000061d4: 6ebf47df    	ushl.4s	v31, v30, v31
1000061d8: 4e241fff    	and.16b	v31, v31, v4
1000061dc: 4e241d08    	and.16b	v8, v8, v4
1000061e0: 4e241d2a    	and.16b	v10, v9, v4
1000061e4: 4e241c0b    	and.16b	v11, v0, v4
1000061e8: 4ea78560    	add.4s	v0, v11, v7
1000061ec: 4ea78549    	add.4s	v9, v10, v7
1000061f0: 4ea7850c    	add.4s	v12, v8, v7
1000061f4: 4ea787ed    	add.4s	v13, v31, v7
1000061f8: 6f3805ad    	ushr.4s	v13, v13, #0x8
1000061fc: 6f380581    	ushr.4s	v1, v12, #0x8
100006200: 6f380522    	ushr.4s	v2, v9, #0x8
100006204: 6f380400    	ushr.4s	v0, v0, #0x8
100006208: 4ea587e9    	add.4s	v9, v31, v5
10000620c: 4ea5850c    	add.4s	v12, v8, v5
100006210: 4ea5854f    	add.4s	v15, v10, v5
100006214: 4ea5856e    	add.4s	v14, v11, v5
100006218: 4e2e1c0e    	and.16b	v14, v0, v14
10000621c: 4e2f1c4f    	and.16b	v15, v2, v15
100006220: 4e2c1c2c    	and.16b	v12, v1, v12
100006224: 4e291da9    	and.16b	v9, v13, v9
100006228: 4eb687e3    	add.4s	v3, v31, v22
10000622c: 4eb68505    	add.4s	v5, v8, v22
100006230: 4eb68564    	add.4s	v4, v11, v22
100006234: 4e601c84    	bic.16b	v4, v4, v0
100006238: 4eb68540    	add.4s	v0, v10, v22
10000623c: 4e621c02    	bic.16b	v2, v0, v2
100006240: 4e611ca0    	bic.16b	v0, v5, v1
100006244: 4e6d1c6d    	bic.16b	v13, v3, v13
100006248: 4eb38561    	add.4s	v1, v11, v19
10000624c: 4eb38543    	add.4s	v3, v10, v19
100006250: 6f380463    	ushr.4s	v3, v3, #0x8
100006254: 6f380421    	ushr.4s	v1, v1, #0x8
100006258: 4eb08565    	add.4s	v5, v11, v16
10000625c: 4e251c21    	and.16b	v1, v1, v5
100006260: 4eb08545    	add.4s	v5, v10, v16
100006264: 4e251c63    	and.16b	v3, v3, v5
100006268: 4eb18545    	add.4s	v5, v10, v17
10000626c: 6f3804a5    	ushr.4s	v5, v5, #0x8
100006270: 4e251c42    	and.16b	v2, v2, v5
100006274: 4e651c63    	bic.16b	v3, v3, v5
100006278: 4eb18565    	add.4s	v5, v11, v17
10000627c: 6f3804a5    	ushr.4s	v5, v5, #0x8
100006280: 4e251c84    	and.16b	v4, v4, v5
100006284: 4e651c21    	bic.16b	v1, v1, v5
100006288: 4eb58545    	add.4s	v5, v10, v21
10000628c: 6f3804a5    	ushr.4s	v5, v5, #0x8
100006290: 4e651e45    	bic.16b	v5, v18, v5
100006294: 4eaf1ca5    	orr.16b	v5, v5, v15
100006298: 4eb5856f    	add.4s	v15, v11, v21
10000629c: 6f3805ef    	ushr.4s	v15, v15, #0x8
1000062a0: 4e6f1e4f    	bic.16b	v15, v18, v15
1000062a4: 4eae1dee    	orr.16b	v14, v15, v14
1000062a8: 4ea11dc1    	orr.16b	v1, v14, v1
1000062ac: 4f01056e    	movi.4s	v14, #0x2b
1000062b0: 4ea31ca3    	orr.16b	v3, v5, v3
1000062b4: 6e351d45    	eor.16b	v5, v10, v21
1000062b8: 6e351d6a    	eor.16b	v10, v11, v21
1000062bc: 4f00042b    	movi.4s	v11, #0x1
1000062c0: 4eab854a    	add.4s	v10, v10, v11
1000062c4: 4eab84a5    	add.4s	v5, v5, v11
1000062c8: 6f3804a5    	ushr.4s	v5, v5, #0x8
1000062cc: 6f38054a    	ushr.4s	v10, v10, #0x8
1000062d0: 4e6a1dca    	bic.16b	v10, v14, v10
1000062d4: 4e651dc5    	bic.16b	v5, v14, v5
1000062d8: 4ea41d44    	orr.16b	v4, v10, v4
1000062dc: 4ea21ca2    	orr.16b	v2, v5, v2
1000062e0: 4f020425    	movi.4s	v5, #0x41
1000062e4: 4ea41c36    	orr.16b	v22, v1, v4
1000062e8: 4f0107e4    	movi.4s	v4, #0x3f
1000062ec: 4ea21c77    	orr.16b	v23, v3, v2
1000062f0: 4eb38501    	add.4s	v1, v8, v19
1000062f4: 6f380421    	ushr.4s	v1, v1, #0x8
1000062f8: 4eb08502    	add.4s	v2, v8, v16
1000062fc: 4e221c21    	and.16b	v1, v1, v2
100006300: 4eb18502    	add.4s	v2, v8, v17
100006304: 6f380442    	ushr.4s	v2, v2, #0x8
100006308: 4e221c00    	and.16b	v0, v0, v2
10000630c: 4e621c21    	bic.16b	v1, v1, v2
100006310: 4eb58502    	add.4s	v2, v8, v21
100006314: 6f380442    	ushr.4s	v2, v2, #0x8
100006318: 4e621e42    	bic.16b	v2, v18, v2
10000631c: 4eac1c42    	orr.16b	v2, v2, v12
100006320: 4ea11c41    	orr.16b	v1, v2, v1
100006324: 6e351d02    	eor.16b	v2, v8, v21
100006328: 4eab8442    	add.4s	v2, v2, v11
10000632c: 6f380442    	ushr.4s	v2, v2, #0x8
100006330: 4e621dc2    	bic.16b	v2, v14, v2
100006334: 4ea01c40    	orr.16b	v0, v2, v0
100006338: 4ea01c38    	orr.16b	v24, v1, v0
10000633c: 4eb387e0    	add.4s	v0, v31, v19
100006340: 6f380400    	ushr.4s	v0, v0, #0x8
100006344: 4eb087e1    	add.4s	v1, v31, v16
100006348: 4e211c00    	and.16b	v0, v0, v1
10000634c: 4eb187e1    	add.4s	v1, v31, v17
100006350: 6f380421    	ushr.4s	v1, v1, #0x8
100006354: 4e211da2    	and.16b	v2, v13, v1
100006358: 4e611c00    	bic.16b	v0, v0, v1
10000635c: 4eb587e1    	add.4s	v1, v31, v21
100006360: 6f380421    	ushr.4s	v1, v1, #0x8
100006364: 4e611e41    	bic.16b	v1, v18, v1
100006368: 4ea91c21    	orr.16b	v1, v1, v9
10000636c: 4ea01c20    	orr.16b	v0, v1, v0
100006370: 6e351fe1    	eor.16b	v1, v31, v21
100006374: 4eab8421    	add.4s	v1, v1, v11
100006378: 6f380421    	ushr.4s	v1, v1, #0x8
10000637c: 4e611dc1    	bic.16b	v1, v14, v1
100006380: 4ea21c21    	orr.16b	v1, v1, v2
100006384: 4f0004c2    	movi.4s	v2, #0x6
100006388: 4ea11c19    	orr.16b	v25, v0, v1
10000638c: 4e0662c0    	tbl.16b	v0, { v22, v23, v24, v25 }, v6
100006390: 4f0204f6    	movi.4s	v22, #0x47
100006394: 3c8106a0    	str	q0, [x21], #0x10
100006398: 4eb487bd    	add.4s	v29, v29, v20
10000639c: 4eb4879c    	add.4s	v28, v28, v20
1000063a0: 4eb4877b    	add.4s	v27, v27, v20
1000063a4: 4eb4875a    	add.4s	v26, v26, v20
1000063a8: f1004294    	subs	x20, x20, #0x10
1000063ac: 54fff061    	b.ne	0x1000061b8 <_to_base64+0x198>
1000063b0: eb0700bf    	cmp	x5, x7
1000063b4: 54ffeae0    	b.eq	0x100006110 <_to_base64+0xf0>
1000063b8: aa0603e8    	mov	x8, x6
1000063bc: 5100198c    	sub	w12, w12, #0x6
1000063c0: 1acc2524    	lsr	w4, w9, w12
1000063c4: 12001484    	and	w4, w4, #0x3f
1000063c8: 0b0b0085    	add	w5, w4, w11
1000063cc: 53087ca5    	lsr	w5, w5, #8
1000063d0: 11010486    	add	w6, w4, #0x41
1000063d4: 0a0600a6    	and	w6, w5, w6
1000063d8: 0b0d0087    	add	w7, w4, w13
1000063dc: 53087ce7    	lsr	w7, w7, #8
1000063e0: 11011c93    	add	w19, w4, #0x47
1000063e4: 0a250265    	bic	w5, w19, w5
1000063e8: 0a0700a5    	and	w5, w5, w7
1000063ec: 0b0e0093    	add	w19, w4, w14
1000063f0: 1103f094    	add	w20, w4, #0xfc
1000063f4: 0a532293    	and	w19, w20, w19, lsr #8
1000063f8: 0a270267    	bic	w7, w19, w7
1000063fc: 521a6893    	eor	w19, w4, #0xffffffc1
100006400: 11000673    	add	w19, w19, #0x1
100006404: 0a7321f3    	bic	w19, w15, w19, lsr #8
100006408: 0b100084    	add	w4, w4, w16
10000640c: 0a642224    	bic	w4, w17, w4, lsr #8
100006410: 2a060084    	orr	w4, w4, w6
100006414: 2a070084    	orr	w4, w4, w7
100006418: 2a050265    	orr	w5, w19, w5
10000641c: 2a050084    	orr	w4, w4, w5
100006420: 38001504    	strb	w4, [x8], #0x1
100006424: 7100159f    	cmp	w12, #0x5
100006428: 54fffca8    	b.hi	0x1000063bc <_to_base64+0x39c>
10000642c: 17ffff42    	b	0x100006134 <_to_base64+0x114>
100006430: 92800000    	mov	x0, #-0x1               ; =-1
100006434: d65f03c0    	ret
100006438: 3400046c    	cbz	w12, 0x1000064c4 <_to_base64+0x4a4>
10000643c: 52800189    	mov	w9, #0xc                ; =12
100006440: 4b070129    	sub	w9, w9, w7
100006444: 1ac92029    	lsl	w9, w1, w9
100006448: 12001529    	and	w9, w9, #0x3f
10000644c: 529ffcca    	mov	w10, #0xffe6            ; =65510
100006450: 0b0a012a    	add	w10, w9, w10
100006454: 53087d4a    	lsr	w10, w10, #8
100006458: 1101052b    	add	w11, w9, #0x41
10000645c: 0a0b014b    	and	w11, w10, w11
100006460: 529ff98c    	mov	w12, #0xffcc            ; =65484
100006464: 0b0c012c    	add	w12, w9, w12
100006468: 53087d8c    	lsr	w12, w12, #8
10000646c: 11011d2d    	add	w13, w9, #0x47
100006470: 0a2a01aa    	bic	w10, w13, w10
100006474: 0a0c014a    	and	w10, w10, w12
100006478: 529ff84d    	mov	w13, #0xffc2            ; =65474
10000647c: 0b0d012d    	add	w13, w9, w13
100006480: 1103f12e    	add	w14, w9, #0xfc
100006484: 0a4d21cd    	and	w13, w14, w13, lsr #8
100006488: 0a2c01ac    	bic	w12, w13, w12
10000648c: 521a692d    	eor	w13, w9, #0xffffffc1
100006490: 110005ad    	add	w13, w13, #0x1
100006494: 5280056e    	mov	w14, #0x2b              ; =43
100006498: 0a6d21cd    	bic	w13, w14, w13, lsr #8
10000649c: 5287f82e    	mov	w14, #0x3fc1            ; =16321
1000064a0: 0b0e0129    	add	w9, w9, w14
1000064a4: 528005ee    	mov	w14, #0x2f              ; =47
1000064a8: 0a6921c9    	bic	w9, w14, w9, lsr #8
1000064ac: 2a0b0129    	orr	w9, w9, w11
1000064b0: 2a0c0129    	orr	w9, w9, w12
1000064b4: 2a0a01aa    	orr	w10, w13, w10
1000064b8: 2a0a0129    	orr	w9, w9, w10
1000064bc: 39000109    	strb	w9, [x8]
1000064c0: 91000888    	add	x8, x4, #0x2
1000064c4: 3900011f    	strb	wzr, [x8]
1000064c8: a9494ff4    	ldp	x20, x19, [sp, #0x90]
1000064cc: a94857f6    	ldp	x22, x21, [sp, #0x80]
1000064d0: 6d4723e9    	ldp	d9, d8, [sp, #0x70]
1000064d4: 6d462beb    	ldp	d11, d10, [sp, #0x60]
1000064d8: 6d4533ed    	ldp	d13, d12, [sp, #0x50]
1000064dc: 6d443bef    	ldp	d15, d14, [sp, #0x40]
1000064e0: 910283ff    	add	sp, sp, #0xa0
1000064e4: d65f03c0    	ret

00000001000064e8 <_b64len>:
1000064e8: aa0003e8    	mov	x8, x0
1000064ec: 52955569    	mov	w9, #0xaaab             ; =43691
1000064f0: 72b55549    	movk	w9, #0xaaaa, lsl #16
1000064f4: 9ba97c09    	umull	x9, w0, w9
1000064f8: d361fd29    	lsr	x9, x9, #33
1000064fc: d37ef520    	lsl	x0, x9, #2
100006500: 0b090529    	add	w9, w9, w9, lsl #1
100006504: 4b090108    	sub	w8, w8, w9
100006508: 7100051f    	cmp	w8, #0x1
10000650c: 54000080    	b.eq	0x10000651c <_b64len+0x34>
100006510: 7100091f    	cmp	w8, #0x2
100006514: 54000061    	b.ne	0x100006520 <_b64len+0x38>
100006518: b2400000    	orr	x0, x0, #0x1
10000651c: 91000800    	add	x0, x0, #0x2
100006520: d65f03c0    	ret

0000000100006524 <_numlen>:
100006524: 7100281f    	cmp	w0, #0xa
100006528: 54000183    	b.lo	0x100006558 <_numlen+0x34>
10000652c: aa0003e8    	mov	x8, x0
100006530: 52800020    	mov	w0, #0x1                ; =1
100006534: 529999a9    	mov	w9, #0xcccd             ; =52429
100006538: 72b99989    	movk	w9, #0xcccc, lsl #16
10000653c: 91000400    	add	x0, x0, #0x1
100006540: 9ba97d0a    	umull	x10, w8, w9
100006544: d363fd4a    	lsr	x10, x10, #35
100006548: 71018d1f    	cmp	w8, #0x63
10000654c: aa0a03e8    	mov	x8, x10
100006550: 54ffff68    	b.hi	0x10000653c <_numlen+0x18>
100006554: d65f03c0    	ret
100006558: 52800020    	mov	w0, #0x1                ; =1
10000655c: d65f03c0    	ret

0000000100006560 <_fill_segment>:
100006560: a9ba6ffc    	stp	x28, x27, [sp, #-0x60]!
100006564: a90167fa    	stp	x26, x25, [sp, #0x10]
100006568: a9025ff8    	stp	x24, x23, [sp, #0x20]
10000656c: a90357f6    	stp	x22, x21, [sp, #0x30]
100006570: a9044ff4    	stp	x20, x19, [sp, #0x40]
100006574: a9057bfd    	stp	x29, x30, [sp, #0x50]
100006578: 910143fd    	add	x29, sp, #0x50
10000657c: d13043ff    	sub	sp, sp, #0xc10
100006580: a93a0ba1    	stp	x1, x2, [x29, #-0x60]
100006584: b4001320    	cbz	x0, 0x1000067e8 <_fill_segment+0x288>
100006588: aa0203f4    	mov	x20, x2
10000658c: aa0103f5    	mov	x21, x1
100006590: aa0003f3    	mov	x19, x0
100006594: 12001e98    	and	w24, w20, #0xff
100006598: d360fc37    	lsr	x23, x1, #32
10000659c: b9402408    	ldr	w8, [x0, #0x24]
1000065a0: 7100051f    	cmp	w8, #0x1
1000065a4: 540001c0    	b.eq	0x1000065dc <_fill_segment+0x7c>
1000065a8: 7100091f    	cmp	w8, #0x2
1000065ac: 7a400aa0    	ccmp	w21, #0x0, #0x0, eq
1000065b0: 7a420b02    	ccmp	w24, #0x2, #0x2, eq
1000065b4: 54000143    	b.lo	0x1000065dc <_fill_segment+0x7c>
1000065b8: 52800016    	mov	w22, #0x0               ; =0
1000065bc: 2a1802a8    	orr	w8, w21, w24
1000065c0: 7100011f    	cmp	w8, #0x0
1000065c4: 1a9f17e8    	cset	w8, eq
1000065c8: 531f7915    	lsl	w21, w8, #1
1000065cc: b9401668    	ldr	w8, [x19, #0x14]
1000065d0: 6b0802bf    	cmp	w21, w8
1000065d4: 54000603    	b.lo	0x100006694 <_fill_segment+0x134>
1000065d8: 14000084    	b	0x1000067e8 <_fill_segment+0x288>
1000065dc: 910003e0    	mov	x0, sp
1000065e0: 52800001    	mov	w1, #0x0                ; =0
1000065e4: 97fff3c1    	bl	0x1000034e8 <_init_block_value>
1000065e8: 911003e0    	add	x0, sp, #0x400
1000065ec: 52800001    	mov	w1, #0x0                ; =0
1000065f0: 97fff3be    	bl	0x1000034e8 <_init_block_value>
1000065f4: 92407ea8    	and	x8, x21, #0xffffffff
1000065f8: f90203e8    	str	x8, [sp, #0x400]
1000065fc: f90207f7    	str	x23, [sp, #0x408]
100006600: 92401e88    	and	x8, x20, #0xff
100006604: f9020be8    	str	x8, [sp, #0x410]
100006608: fc40c260    	ldur	d0, [x19, #0xc]
10000660c: 2f20a400    	ushll.2d	v0, v0, #0x0
100006610: 6e004000    	ext.16b	v0, v0, v0, #0x8
100006614: 910c67e8    	add	x8, sp, #0x319
100006618: 3c8ff100    	stur	q0, [x8, #0xff]
10000661c: b9402668    	ldr	w8, [x19, #0x24]
100006620: f90217e8    	str	x8, [sp, #0x428]
100006624: 2a1802a9    	orr	w9, w21, w24
100006628: 7100013f    	cmp	w9, #0x0
10000662c: 1a9f17e8    	cset	w8, eq
100006630: 340000e9    	cbz	w9, 0x10000664c <_fill_segment+0xec>
100006634: 531f7915    	lsl	w21, w8, #1
100006638: 52800036    	mov	w22, #0x1               ; =1
10000663c: b9401668    	ldr	w8, [x19, #0x14]
100006640: 6b0802bf    	cmp	w21, w8
100006644: 54000d22    	b.hs	0x1000067e8 <_fill_segment+0x288>
100006648: 14000013    	b	0x100006694 <_fill_segment+0x134>
10000664c: f9421be8    	ldr	x8, [sp, #0x430]
100006650: 91000508    	add	x8, x8, #0x1
100006654: f9021be8    	str	x8, [sp, #0x430]
100006658: 910003e0    	mov	x0, sp
10000665c: 911003e1    	add	x1, sp, #0x400
100006660: 912003e2    	add	x2, sp, #0x800
100006664: 52800003    	mov	w3, #0x0                ; =0
100006668: 94000068    	bl	0x100006808 <_fill_block>
10000666c: 910003e0    	mov	x0, sp
100006670: 912003e1    	add	x1, sp, #0x800
100006674: 912003e2    	add	x2, sp, #0x800
100006678: 52800003    	mov	w3, #0x0                ; =0
10000667c: 94000063    	bl	0x100006808 <_fill_block>
100006680: 52800055    	mov	w21, #0x2               ; =2
100006684: 52800036    	mov	w22, #0x1               ; =1
100006688: b9401668    	ldr	w8, [x19, #0x14]
10000668c: 6b0802bf    	cmp	w21, w8
100006690: 54000ac2    	b.hs	0x1000067e8 <_fill_segment+0x288>
100006694: b9401a69    	ldr	w9, [x19, #0x18]
100006698: 1b177d2a    	mul	w10, w9, w23
10000669c: 12001e8b    	and	w11, w20, #0xff
1000066a0: 1b0b7d0b    	mul	w11, w8, w11
1000066a4: 0b150148    	add	w8, w10, w21
1000066a8: 0b0b0108    	add	w8, w8, w11
1000066ac: 1ac9090c    	udiv	w12, w8, w9
1000066b0: 1b09a18c    	msub	w12, w12, w9, w8
1000066b4: 51000529    	sub	w9, w9, #0x1
1000066b8: 7100019f    	cmp	w12, #0x0
1000066bc: 5a9f0129    	csinv	w9, w9, wzr, eq
1000066c0: 0b080128    	add	w8, w9, w8
1000066c4: 0b0a0174    	add	w20, w11, w10
1000066c8: 912003f7    	add	x23, sp, #0x800
1000066cc: 14000009    	b	0x1000066f0 <_fill_segment+0x190>
1000066d0: 8b182900    	add	x0, x8, x24, lsl #10
1000066d4: 52800003    	mov	w3, #0x0                ; =0
1000066d8: 9400004c    	bl	0x100006808 <_fill_block>
1000066dc: 110006b5    	add	w21, w21, #0x1
1000066e0: 11000708    	add	w8, w24, #0x1
1000066e4: b9401669    	ldr	w9, [x19, #0x14]
1000066e8: 6b0902bf    	cmp	w21, w9
1000066ec: 540007e2    	b.hs	0x1000067e8 <_fill_segment+0x288>
1000066f0: 0b150299    	add	w25, w20, w21
1000066f4: b9401a69    	ldr	w9, [x19, #0x18]
1000066f8: 1ac90b2a    	udiv	w10, w25, w9
1000066fc: 1b09e549    	msub	w9, w10, w9, w25
100006700: 5100072a    	sub	w10, w25, #0x1
100006704: 7100053f    	cmp	w9, #0x1
100006708: 1a880158    	csel	w24, w10, w8, eq
10000670c: 34000256    	cbz	w22, 0x100006754 <_fill_segment+0x1f4>
100006710: 72001aba    	ands	w26, w21, #0x7f
100006714: 540001c1    	b.ne	0x10000674c <_fill_segment+0x1ec>
100006718: f9421be8    	ldr	x8, [sp, #0x430]
10000671c: 91000508    	add	x8, x8, #0x1
100006720: f9021be8    	str	x8, [sp, #0x430]
100006724: 910003e0    	mov	x0, sp
100006728: 911003e1    	add	x1, sp, #0x400
10000672c: 912003e2    	add	x2, sp, #0x800
100006730: 52800003    	mov	w3, #0x0                ; =0
100006734: 94000035    	bl	0x100006808 <_fill_block>
100006738: 910003e0    	mov	x0, sp
10000673c: 912003e1    	add	x1, sp, #0x800
100006740: 912003e2    	add	x2, sp, #0x800
100006744: 52800003    	mov	w3, #0x0                ; =0
100006748: 94000030    	bl	0x100006808 <_fill_block>
10000674c: 8b3a4ee8    	add	x8, x23, w26, uxtw #3
100006750: 14000003    	b	0x10000675c <_fill_segment+0x1fc>
100006754: f9400268    	ldr	x8, [x19]
100006758: 8b182908    	add	x8, x8, x24, lsl #10
10000675c: 29402102    	ldp	w2, w8, [x8]
100006760: b9401e69    	ldr	w9, [x19, #0x1c]
100006764: 1ac9090a    	udiv	w10, w8, w9
100006768: 1b09a148    	msub	w8, w10, w9, w8
10000676c: 385a83a9    	ldurb	w9, [x29, #-0x58]
100006770: 29742faa    	ldp	w10, w11, [x29, #-0x60]
100006774: 2a090149    	orr	w9, w10, w9
100006778: 7100013f    	cmp	w9, #0x0
10000677c: 9a88017a    	csel	x26, x11, x8, eq
100006780: b81ac3b5    	stur	w21, [x29, #-0x54]
100006784: eb0b035f    	cmp	x26, x11
100006788: 1a9f17e3    	cset	w3, eq
10000678c: d10183a1    	sub	x1, x29, #0x60
100006790: aa1303e0    	mov	x0, x19
100006794: 97fff56d    	bl	0x100003d48 <_index_alpha>
100006798: 2a0003e9    	mov	w9, w0
10000679c: f9400268    	ldr	x8, [x19]
1000067a0: b9401a6a    	ldr	w10, [x19, #0x18]
1000067a4: 9baa7f4a    	umull	x10, w26, w10
1000067a8: 8b0a290a    	add	x10, x8, x10, lsl #10
1000067ac: 8b092941    	add	x1, x10, x9, lsl #10
1000067b0: 8b192902    	add	x2, x8, x25, lsl #10
1000067b4: b9400a69    	ldr	w9, [x19, #0x8]
1000067b8: 7100413f    	cmp	w9, #0x10
1000067bc: 54fff8a0    	b.eq	0x1000066d0 <_fill_segment+0x170>
1000067c0: b85a03a9    	ldur	w9, [x29, #-0x60]
1000067c4: 8b182900    	add	x0, x8, x24, lsl #10
1000067c8: 34fff869    	cbz	w9, 0x1000066d4 <_fill_segment+0x174>
1000067cc: 52800023    	mov	w3, #0x1                ; =1
1000067d0: 9400000e    	bl	0x100006808 <_fill_block>
1000067d4: 110006b5    	add	w21, w21, #0x1
1000067d8: 11000708    	add	w8, w24, #0x1
1000067dc: b9401669    	ldr	w9, [x19, #0x14]
1000067e0: 6b0902bf    	cmp	w21, w9
1000067e4: 54fff863    	b.lo	0x1000066f0 <_fill_segment+0x190>
1000067e8: 913043ff    	add	sp, sp, #0xc10
1000067ec: a9457bfd    	ldp	x29, x30, [sp, #0x50]
1000067f0: a9444ff4    	ldp	x20, x19, [sp, #0x40]
1000067f4: a94357f6    	ldp	x22, x21, [sp, #0x30]
1000067f8: a9425ff8    	ldp	x24, x23, [sp, #0x20]
1000067fc: a94167fa    	ldp	x26, x25, [sp, #0x10]
100006800: a8c66ffc    	ldp	x28, x27, [sp], #0x60
100006804: d65f03c0    	ret

0000000100006808 <_fill_block>:
100006808: a9bb67fa    	stp	x26, x25, [sp, #-0x50]!
10000680c: a9015ff8    	stp	x24, x23, [sp, #0x10]
100006810: a90257f6    	stp	x22, x21, [sp, #0x20]
100006814: a9034ff4    	stp	x20, x19, [sp, #0x30]
100006818: a9047bfd    	stp	x29, x30, [sp, #0x40]
10000681c: 910103fd    	add	x29, sp, #0x40
100006820: d12003ff    	sub	sp, sp, #0x800
100006824: aa0303f4    	mov	x20, x3
100006828: aa0203f3    	mov	x19, x2
10000682c: aa0003f5    	mov	x21, x0
100006830: 911003f6    	add	x22, sp, #0x400
100006834: 911003e0    	add	x0, sp, #0x400
100006838: 97fff32e    	bl	0x1000034f0 <_copy_block>
10000683c: 911003e0    	add	x0, sp, #0x400
100006840: aa1503e1    	mov	x1, x21
100006844: 97fff32d    	bl	0x1000034f8 <_xor_block>
100006848: 910003e0    	mov	x0, sp
10000684c: 911003e1    	add	x1, sp, #0x400
100006850: 97fff328    	bl	0x1000034f0 <_copy_block>
100006854: 34000094    	cbz	w20, 0x100006864 <_fill_block+0x5c>
100006858: 910003e0    	mov	x0, sp
10000685c: aa1303e1    	mov	x1, x19
100006860: 97fff326    	bl	0x1000034f8 <_xor_block>
100006864: d2800008    	mov	x8, #0x0                ; =0
100006868: 8b0802c9    	add	x9, x22, x8
10000686c: a942312a    	ldp	x10, x12, [x9, #0x20]
100006870: 92407d4b    	and	x11, x10, #0xffffffff
100006874: a940392d    	ldp	x13, x14, [x9]
100006878: 8b0d014f    	add	x15, x10, x13
10000687c: d37f7dad    	ubfiz	x13, x13, #1, #32
100006880: 9b0b3daf    	madd	x15, x13, x11, x15
100006884: a946412b    	ldp	x11, x16, [x9, #0x60]
100006888: ca0b01eb    	eor	x11, x15, x11
10000688c: 93cb8171    	ror	x17, x11, #0x20
100006890: 92407e2b    	and	x11, x17, #0xffffffff
100006894: a944012d    	ldp	x13, x0, [x9, #0x40]
100006898: d37f7da1    	ubfiz	x1, x13, #1, #32
10000689c: 8b0d022d    	add	x13, x17, x13
1000068a0: 9b0b342b    	madd	x11, x1, x11, x13
1000068a4: ca0a016d    	eor	x13, x11, x10
1000068a8: d37f7de1    	ubfiz	x1, x15, #1, #32
1000068ac: d37f7d6a    	ubfiz	x10, x11, #1, #32
1000068b0: 93cd61ad    	ror	x13, x13, #0x18
1000068b4: 92407d82    	and	x2, x12, #0xffffffff
1000068b8: 8b0e0183    	add	x3, x12, x14
1000068bc: d37f7dce    	ubfiz	x14, x14, #1, #32
1000068c0: 9b020dc2    	madd	x2, x14, x2, x3
1000068c4: ca10004e    	eor	x14, x2, x16
1000068c8: 92407db0    	and	x16, x13, #0xffffffff
1000068cc: 93ce81c3    	ror	x3, x14, #0x20
1000068d0: 92407c6e    	and	x14, x3, #0xffffffff
1000068d4: 8b000064    	add	x4, x3, x0
1000068d8: d37f7c00    	ubfiz	x0, x0, #1, #32
1000068dc: 8b0f01af    	add	x15, x13, x15
1000068e0: 9b0e1004    	madd	x4, x0, x14, x4
1000068e4: ca0c008c    	eor	x12, x4, x12
1000068e8: 93cc618e    	ror	x14, x12, #0x18
1000068ec: 92407dcc    	and	x12, x14, #0xffffffff
1000068f0: 9b013e10    	madd	x16, x16, x1, x15
1000068f4: 8b0201cf    	add	x15, x14, x2
1000068f8: d37f7c40    	ubfiz	x0, x2, #1, #32
1000068fc: 9b003d8c    	madd	x12, x12, x0, x15
100006900: a9430520    	ldp	x0, x1, [x9, #0x30]
100006904: ca11020f    	eor	x15, x16, x17
100006908: 92407c11    	and	x17, x0, #0xffffffff
10000690c: a9411522    	ldp	x2, x5, [x9, #0x10]
100006910: 8b020006    	add	x6, x0, x2
100006914: d37f7c42    	ubfiz	x2, x2, #1, #32
100006918: ca030183    	eor	x3, x12, x3
10000691c: 9b111851    	madd	x17, x2, x17, x6
100006920: a9471922    	ldp	x2, x6, [x9, #0x70]
100006924: ca020222    	eor	x2, x17, x2
100006928: 93cf41e7    	ror	x7, x15, #0x10
10000692c: 93c28042    	ror	x2, x2, #0x20
100006930: 92407c54    	and	x20, x2, #0xffffffff
100006934: 93c3406f    	ror	x15, x3, #0x10
100006938: a9450d35    	ldp	x21, x3, [x9, #0x50]
10000693c: 8b150057    	add	x23, x2, x21
100006940: d37f7eb5    	ubfiz	x21, x21, #1, #32
100006944: 9b145eb4    	madd	x20, x21, x20, x23
100006948: ca000280    	eor	x0, x20, x0
10000694c: 92407cf5    	and	x21, x7, #0xffffffff
100006950: 93c06017    	ror	x23, x0, #0x18
100006954: 92407ee0    	and	x0, x23, #0xffffffff
100006958: 8b1102f8    	add	x24, x23, x17
10000695c: d37f7e31    	ubfiz	x17, x17, #1, #32
100006960: 8b0b00eb    	add	x11, x7, x11
100006964: 9b116000    	madd	x0, x0, x17, x24
100006968: 92407df8    	and	x24, x15, #0xffffffff
10000696c: 8b0401f9    	add	x25, x15, x4
100006970: d37f7c84    	ubfiz	x4, x4, #1, #32
100006974: ca020002    	eor	x2, x0, x2
100006978: 9b0a2eb1    	madd	x17, x21, x10, x11
10000697c: 93c2404b    	ror	x11, x2, #0x10
100006980: 92407d62    	and	x2, x11, #0xffffffff
100006984: 8b140175    	add	x21, x11, x20
100006988: d37f7e94    	ubfiz	x20, x20, #1, #32
10000698c: 9b04670a    	madd	x10, x24, x4, x25
100006990: 9b145442    	madd	x2, x2, x20, x21
100006994: 92407c24    	and	x4, x1, #0xffffffff
100006998: 8b050034    	add	x20, x1, x5
10000699c: d37f7ca5    	ubfiz	x5, x5, #1, #32
1000069a0: 9b0450a4    	madd	x4, x5, x4, x20
1000069a4: ca0d022d    	eor	x13, x17, x13
1000069a8: ca060085    	eor	x5, x4, x6
1000069ac: 93c580a5    	ror	x5, x5, #0x20
1000069b0: 92407ca6    	and	x6, x5, #0xffffffff
1000069b4: 8b0300b4    	add	x20, x5, x3
1000069b8: ca0e0155    	eor	x21, x10, x14
1000069bc: d37f7c6e    	ubfiz	x14, x3, #1, #32
1000069c0: 9b0651c3    	madd	x3, x14, x6, x20
1000069c4: ca01006e    	eor	x14, x3, x1
1000069c8: 93ce61c1    	ror	x1, x14, #0x18
1000069cc: ca170046    	eor	x6, x2, x23
1000069d0: 92407c2e    	and	x14, x1, #0xffffffff
1000069d4: 8b040034    	add	x20, x1, x4
1000069d8: d37f7c84    	ubfiz	x4, x4, #1, #32
1000069dc: 9b0451ce    	madd	x14, x14, x4, x20
1000069e0: 93cdfdad    	ror	x13, x13, #0x3f
1000069e4: ca0501c4    	eor	x4, x14, x5
1000069e8: 93c44084    	ror	x4, x4, #0x10
1000069ec: 92407c85    	and	x5, x4, #0xffffffff
1000069f0: 93d5feb4    	ror	x20, x21, #0x3f
1000069f4: 8b030095    	add	x21, x4, x3
1000069f8: d37f7c63    	ubfiz	x3, x3, #1, #32
1000069fc: 9b0354a3    	madd	x3, x5, x3, x21
100006a00: ca010061    	eor	x1, x3, x1
100006a04: 93c6fcc5    	ror	x5, x6, #0x3f
100006a08: 93c1fc21    	ror	x1, x1, #0x3f
100006a0c: 92407e86    	and	x6, x20, #0xffffffff
100006a10: 8b100295    	add	x21, x20, x16
100006a14: d37f7e10    	ubfiz	x16, x16, #1, #32
100006a18: 9b1054c6    	madd	x6, x6, x16, x21
100006a1c: ca060090    	eor	x16, x4, x6
100006a20: 93d08204    	ror	x4, x16, #0x20
100006a24: 92407c90    	and	x16, x4, #0xffffffff
100006a28: d37f7c55    	ubfiz	x21, x2, #1, #32
100006a2c: 8b020082    	add	x2, x4, x2
100006a30: 9b150a02    	madd	x2, x16, x21, x2
100006a34: ca140050    	eor	x16, x2, x20
100006a38: 93d06210    	ror	x16, x16, #0x18
100006a3c: d37f7cd4    	ubfiz	x20, x6, #1, #32
100006a40: 92407e15    	and	x21, x16, #0xffffffff
100006a44: 92407cb7    	and	x23, x5, #0xffffffff
100006a48: 8b0c00b8    	add	x24, x5, x12
100006a4c: d37f7d8c    	ubfiz	x12, x12, #1, #32
100006a50: 9b0c62ec    	madd	x12, x23, x12, x24
100006a54: ca070187    	eor	x7, x12, x7
100006a58: 8b060206    	add	x6, x16, x6
100006a5c: 93c780e7    	ror	x7, x7, #0x20
100006a60: 92407cf7    	and	x23, x7, #0xffffffff
100006a64: 8b070078    	add	x24, x3, x7
100006a68: d37f7c63    	ubfiz	x3, x3, #1, #32
100006a6c: 9b141aa6    	madd	x6, x21, x20, x6
100006a70: 9b176063    	madd	x3, x3, x23, x24
100006a74: ca050065    	eor	x5, x3, x5
100006a78: 93c560a5    	ror	x5, x5, #0x18
100006a7c: 92407cb4    	and	x20, x5, #0xffffffff
100006a80: ca0400c4    	eor	x4, x6, x4
100006a84: 8b0c00b5    	add	x21, x5, x12
100006a88: d37f7d8c    	ubfiz	x12, x12, #1, #32
100006a8c: 9b0c568c    	madd	x12, x20, x12, x21
100006a90: d37f7c54    	ubfiz	x20, x2, #1, #32
100006a94: a9003126    	stp	x6, x12, [x9]
100006a98: ca07018c    	eor	x12, x12, x7
100006a9c: 92407c26    	and	x6, x1, #0xffffffff
100006aa0: 8b000027    	add	x7, x1, x0
100006aa4: d37f7c00    	ubfiz	x0, x0, #1, #32
100006aa8: 93c44084    	ror	x4, x4, #0x10
100006aac: 9b001cc0    	madd	x0, x6, x0, x7
100006ab0: ca0f000f    	eor	x15, x0, x15
100006ab4: 93cf81ef    	ror	x15, x15, #0x20
100006ab8: 93cc418c    	ror	x12, x12, #0x10
100006abc: 92407de6    	and	x6, x15, #0xffffffff
100006ac0: 8b1101e7    	add	x7, x15, x17
100006ac4: d37f7e31    	ubfiz	x17, x17, #1, #32
100006ac8: 9b111cd1    	madd	x17, x6, x17, x7
100006acc: ca010221    	eor	x1, x17, x1
100006ad0: 92407c86    	and	x6, x4, #0xffffffff
100006ad4: 93c16021    	ror	x1, x1, #0x18
100006ad8: 92407c27    	and	x7, x1, #0xffffffff
100006adc: 8b000035    	add	x21, x1, x0
100006ae0: d37f7c00    	ubfiz	x0, x0, #1, #32
100006ae4: 8b020082    	add	x2, x4, x2
100006ae8: 9b0054e0    	madd	x0, x7, x0, x21
100006aec: 92407d87    	and	x7, x12, #0xffffffff
100006af0: 8b030195    	add	x21, x12, x3
100006af4: d37f7c63    	ubfiz	x3, x3, #1, #32
100006af8: ca0f000f    	eor	x15, x0, x15
100006afc: 9b1408c2    	madd	x2, x6, x20, x2
100006b00: 93cf41ef    	ror	x15, x15, #0x10
100006b04: a9063d2c    	stp	x12, x15, [x9, #0x60]
100006b08: 92407dec    	and	x12, x15, #0xffffffff
100006b0c: 9b0354e3    	madd	x3, x7, x3, x21
100006b10: 8b1101ef    	add	x15, x15, x17
100006b14: d37f7e31    	ubfiz	x17, x17, #1, #32
100006b18: 92407da6    	and	x6, x13, #0xffffffff
100006b1c: 8b0d01c7    	add	x7, x14, x13
100006b20: d37f7dce    	ubfiz	x14, x14, #1, #32
100006b24: ca100050    	eor	x16, x2, x16
100006b28: 9b061dce    	madd	x14, x14, x6, x7
100006b2c: ca0b01cb    	eor	x11, x14, x11
100006b30: 93cb816b    	ror	x11, x11, #0x20
100006b34: a9050d22    	stp	x2, x3, [x9, #0x50]
100006b38: 9b113d8c    	madd	x12, x12, x17, x15
100006b3c: 92407d6f    	and	x15, x11, #0xffffffff
100006b40: 8b0a0171    	add	x17, x11, x10
100006b44: d37f7d4a    	ubfiz	x10, x10, #1, #32
100006b48: 9b0a45ea    	madd	x10, x15, x10, x17
100006b4c: ca05006f    	eor	x15, x3, x5
100006b50: ca0d014d    	eor	x13, x10, x13
100006b54: 93cd61ad    	ror	x13, x13, #0x18
100006b58: 92407db1    	and	x17, x13, #0xffffffff
100006b5c: 8b0e01a2    	add	x2, x13, x14
100006b60: ca010181    	eor	x1, x12, x1
100006b64: d37f7dce    	ubfiz	x14, x14, #1, #32
100006b68: 9b0e0a2e    	madd	x14, x17, x14, x2
100006b6c: a9013920    	stp	x0, x14, [x9, #0x10]
100006b70: 93d0fe10    	ror	x16, x16, #0x3f
100006b74: ca0b01cb    	eor	x11, x14, x11
100006b78: 93cb416b    	ror	x11, x11, #0x10
100006b7c: a907112b    	stp	x11, x4, [x9, #0x70]
100006b80: 93cffdee    	ror	x14, x15, #0x3f
100006b84: 92407d6f    	and	x15, x11, #0xffffffff
100006b88: 8b0a016b    	add	x11, x11, x10
100006b8c: d37f7d4a    	ubfiz	x10, x10, #1, #32
100006b90: 93c1fc31    	ror	x17, x1, #0x3f
100006b94: 9b0a2dea    	madd	x10, x15, x10, x11
100006b98: a904292c    	stp	x12, x10, [x9, #0x40]
100006b9c: ca0d014a    	eor	x10, x10, x13
100006ba0: a903452e    	stp	x14, x17, [x9, #0x30]
100006ba4: 93cafd4a    	ror	x10, x10, #0x3f
100006ba8: a902412a    	stp	x10, x16, [x9, #0x20]
100006bac: 91020108    	add	x8, x8, #0x80
100006bb0: f110011f    	cmp	x8, #0x400
100006bb4: 54ffe5a1    	b.ne	0x100006868 <_fill_block+0x60>
100006bb8: d2800008    	mov	x8, #0x0                ; =0
100006bbc: 911003e9    	add	x9, sp, #0x400
100006bc0: 8b08012a    	add	x10, x9, x8
100006bc4: a950314b    	ldp	x11, x12, [x10, #0x100]
100006bc8: 92407d6d    	and	x13, x11, #0xffffffff
100006bcc: a940414e    	ldp	x14, x16, [x10]
100006bd0: 8b0e016f    	add	x15, x11, x14
100006bd4: d37f7dce    	ubfiz	x14, x14, #1, #32
100006bd8: 9b0d3dcd    	madd	x13, x14, x13, x15
100006bdc: f941814e    	ldr	x14, [x10, #0x300]
100006be0: ca0e01ae    	eor	x14, x13, x14
100006be4: 93ce81ce    	ror	x14, x14, #0x20
100006be8: f941014f    	ldr	x15, [x10, #0x200]
100006bec: 92407dd1    	and	x17, x14, #0xffffffff
100006bf0: 8b0f01c0    	add	x0, x14, x15
100006bf4: d37f7def    	ubfiz	x15, x15, #1, #32
100006bf8: 9b1101e0    	madd	x0, x15, x17, x0
100006bfc: ca0b000b    	eor	x11, x0, x11
100006c00: 93cb616f    	ror	x15, x11, #0x18
100006c04: 92407deb    	and	x11, x15, #0xffffffff
100006c08: d37f7db1    	ubfiz	x17, x13, #1, #32
100006c0c: 92407d81    	and	x1, x12, #0xffffffff
100006c10: 8b100182    	add	x2, x12, x16
100006c14: d37f7e10    	ubfiz	x16, x16, #1, #32
100006c18: 8b0d01ed    	add	x13, x15, x13
100006c1c: 9b010a10    	madd	x16, x16, x1, x2
100006c20: f9418541    	ldr	x1, [x10, #0x308]
100006c24: ca010201    	eor	x1, x16, x1
100006c28: 93c18022    	ror	x2, x1, #0x20
100006c2c: 9b113561    	madd	x1, x11, x17, x13
100006c30: f941054b    	ldr	x11, [x10, #0x208]
100006c34: 92407c4d    	and	x13, x2, #0xffffffff
100006c38: 8b0b0051    	add	x17, x2, x11
100006c3c: d37f7d6b    	ubfiz	x11, x11, #1, #32
100006c40: 9b0d456d    	madd	x13, x11, x13, x17
100006c44: ca0e002b    	eor	x11, x1, x14
100006c48: ca0c01ac    	eor	x12, x13, x12
100006c4c: 93cc6191    	ror	x17, x12, #0x18
100006c50: 92407e2c    	and	x12, x17, #0xffffffff
100006c54: 93cb416e    	ror	x14, x11, #0x10
100006c58: 8b10022b    	add	x11, x17, x16
100006c5c: d37f7e10    	ubfiz	x16, x16, #1, #32
100006c60: 9b102d90    	madd	x16, x12, x16, x11
100006c64: ca02020b    	eor	x11, x16, x2
100006c68: 93cb416b    	ror	x11, x11, #0x10
100006c6c: d37f7c0c    	ubfiz	x12, x0, #1, #32
100006c70: d37f7da3    	ubfiz	x3, x13, #1, #32
100006c74: a9581142    	ldp	x2, x4, [x10, #0x180]
100006c78: 92407c45    	and	x5, x2, #0xffffffff
100006c7c: 92407dc6    	and	x6, x14, #0xffffffff
100006c80: a9485147    	ldp	x7, x20, [x10, #0x80]
100006c84: 8b070055    	add	x21, x2, x7
100006c88: d37f7ce7    	ubfiz	x7, x7, #1, #32
100006c8c: 9b0554e5    	madd	x5, x7, x5, x21
100006c90: 8b0001c0    	add	x0, x14, x0
100006c94: f941c147    	ldr	x7, [x10, #0x380]
100006c98: ca0700a7    	eor	x7, x5, x7
100006c9c: 93c780e7    	ror	x7, x7, #0x20
100006ca0: f9414155    	ldr	x21, [x10, #0x280]
100006ca4: 92407d76    	and	x22, x11, #0xffffffff
100006ca8: 92407cf7    	and	x23, x7, #0xffffffff
100006cac: 8b1500f8    	add	x24, x7, x21
100006cb0: d37f7eb5    	ubfiz	x21, x21, #1, #32
100006cb4: 9b1762b5    	madd	x21, x21, x23, x24
100006cb8: ca0202a2    	eor	x2, x21, x2
100006cbc: 8b0d0177    	add	x23, x11, x13
100006cc0: 93c26058    	ror	x24, x2, #0x18
100006cc4: 92407f0d    	and	x13, x24, #0xffffffff
100006cc8: 8b050302    	add	x2, x24, x5
100006ccc: d37f7ca5    	ubfiz	x5, x5, #1, #32
100006cd0: 9b0c00c0    	madd	x0, x6, x12, x0
100006cd4: 9b0509a2    	madd	x2, x13, x5, x2
100006cd8: ca07004c    	eor	x12, x2, x7
100006cdc: 93cc418d    	ror	x13, x12, #0x10
100006ce0: 92407da5    	and	x5, x13, #0xffffffff
100006ce4: 9b035ecc    	madd	x12, x22, x3, x23
100006ce8: 8b1501a3    	add	x3, x13, x21
100006cec: d37f7ea6    	ubfiz	x6, x21, #1, #32
100006cf0: 92407c87    	and	x7, x4, #0xffffffff
100006cf4: 8b140095    	add	x21, x4, x20
100006cf8: d37f7e94    	ubfiz	x20, x20, #1, #32
100006cfc: ca0f000f    	eor	x15, x0, x15
100006d00: 9b075687    	madd	x7, x20, x7, x21
100006d04: f941c554    	ldr	x20, [x10, #0x388]
100006d08: ca1400f4    	eor	x20, x7, x20
100006d0c: 93d48294    	ror	x20, x20, #0x20
100006d10: ca110195    	eor	x21, x12, x17
100006d14: 9b060ca5    	madd	x5, x5, x6, x3
100006d18: f9414551    	ldr	x17, [x10, #0x288]
100006d1c: 92407e83    	and	x3, x20, #0xffffffff
100006d20: 8b110286    	add	x6, x20, x17
100006d24: d37f7e31    	ubfiz	x17, x17, #1, #32
100006d28: ca1800b6    	eor	x22, x5, x24
100006d2c: 9b031a23    	madd	x3, x17, x3, x6
100006d30: ca040071    	eor	x17, x3, x4
100006d34: 93d16224    	ror	x4, x17, #0x18
100006d38: 93cffdef    	ror	x15, x15, #0x3f
100006d3c: 92407c91    	and	x17, x4, #0xffffffff
100006d40: 8b070086    	add	x6, x4, x7
100006d44: d37f7ce7    	ubfiz	x7, x7, #1, #32
100006d48: 9b071a31    	madd	x17, x17, x7, x6
100006d4c: 93d5fea6    	ror	x6, x21, #0x3f
100006d50: ca140227    	eor	x7, x17, x20
100006d54: 93c740e7    	ror	x7, x7, #0x10
100006d58: 92407cf4    	and	x20, x7, #0xffffffff
100006d5c: 93d6fed5    	ror	x21, x22, #0x3f
100006d60: 8b0300f6    	add	x22, x7, x3
100006d64: d37f7c63    	ubfiz	x3, x3, #1, #32
100006d68: 9b035a94    	madd	x20, x20, x3, x22
100006d6c: ca040283    	eor	x3, x20, x4
100006d70: 93c3fc63    	ror	x3, x3, #0x3f
100006d74: 92407cc4    	and	x4, x6, #0xffffffff
100006d78: 8b0100d6    	add	x22, x6, x1
100006d7c: d37f7c21    	ubfiz	x1, x1, #1, #32
100006d80: 9b015881    	madd	x1, x4, x1, x22
100006d84: ca0100e4    	eor	x4, x7, x1
100006d88: 93c48084    	ror	x4, x4, #0x20
100006d8c: 92407c87    	and	x7, x4, #0xffffffff
100006d90: 8b050096    	add	x22, x4, x5
100006d94: d37f7ca5    	ubfiz	x5, x5, #1, #32
100006d98: 9b0558e5    	madd	x5, x7, x5, x22
100006d9c: ca0600a6    	eor	x6, x5, x6
100006da0: 92407ea7    	and	x7, x21, #0xffffffff
100006da4: 8b1002b6    	add	x22, x21, x16
100006da8: d37f7e10    	ubfiz	x16, x16, #1, #32
100006dac: 93c660c6    	ror	x6, x6, #0x18
100006db0: 9b1058f0    	madd	x16, x7, x16, x22
100006db4: 92407cc7    	and	x7, x6, #0xffffffff
100006db8: 8b0100d6    	add	x22, x6, x1
100006dbc: d37f7c21    	ubfiz	x1, x1, #1, #32
100006dc0: ca0e020e    	eor	x14, x16, x14
100006dc4: 9b0158e1    	madd	x1, x7, x1, x22
100006dc8: 93ce81ce    	ror	x14, x14, #0x20
100006dcc: 92407dc7    	and	x7, x14, #0xffffffff
100006dd0: 8b0e0296    	add	x22, x20, x14
100006dd4: d37f7e94    	ubfiz	x20, x20, #1, #32
100006dd8: ca040024    	eor	x4, x1, x4
100006ddc: 9b075a87    	madd	x7, x20, x7, x22
100006de0: ca1500f4    	eor	x20, x7, x21
100006de4: 93d46294    	ror	x20, x20, #0x18
100006de8: 93c44084    	ror	x4, x4, #0x10
100006dec: 92407e95    	and	x21, x20, #0xffffffff
100006df0: 8b100296    	add	x22, x20, x16
100006df4: d37f7e10    	ubfiz	x16, x16, #1, #32
100006df8: 9b105ab0    	madd	x16, x21, x16, x22
100006dfc: f901c544    	str	x4, [x10, #0x388]
100006e00: 92407c95    	and	x21, x4, #0xffffffff
100006e04: d37f7cb6    	ubfiz	x22, x5, #1, #32
100006e08: a9004141    	stp	x1, x16, [x10]
100006e0c: ca0e020e    	eor	x14, x16, x14
100006e10: 8b050090    	add	x16, x4, x5
100006e14: 93ce41ce    	ror	x14, x14, #0x10
100006e18: f901814e    	str	x14, [x10, #0x300]
100006e1c: 92407c61    	and	x1, x3, #0xffffffff
100006e20: 8b020064    	add	x4, x3, x2
100006e24: 92407dc5    	and	x5, x14, #0xffffffff
100006e28: d37f7c42    	ubfiz	x2, x2, #1, #32
100006e2c: 9b021021    	madd	x1, x1, x2, x4
100006e30: ca0b002b    	eor	x11, x1, x11
100006e34: 93cb816b    	ror	x11, x11, #0x20
100006e38: 8b0701ce    	add	x14, x14, x7
100006e3c: d37f7ce2    	ubfiz	x2, x7, #1, #32
100006e40: 92407d64    	and	x4, x11, #0xffffffff
100006e44: 8b000167    	add	x7, x11, x0
100006e48: d37f7c00    	ubfiz	x0, x0, #1, #32
100006e4c: 9b001c80    	madd	x0, x4, x0, x7
100006e50: 9b1642b0    	madd	x16, x21, x22, x16
100006e54: ca030003    	eor	x3, x0, x3
100006e58: 93c36063    	ror	x3, x3, #0x18
100006e5c: 92407c64    	and	x4, x3, #0xffffffff
100006e60: 8b010067    	add	x7, x3, x1
100006e64: f9014150    	str	x16, [x10, #0x280]
100006e68: d37f7c21    	ubfiz	x1, x1, #1, #32
100006e6c: 9b011c81    	madd	x1, x4, x1, x7
100006e70: ca0b002b    	eor	x11, x1, x11
100006e74: 93cb416b    	ror	x11, x11, #0x10
100006e78: ca060210    	eor	x16, x16, x6
100006e7c: 9b0238ae    	madd	x14, x5, x2, x14
100006e80: f901854b    	str	x11, [x10, #0x308]
100006e84: 92407d62    	and	x2, x11, #0xffffffff
100006e88: 8b00016b    	add	x11, x11, x0
100006e8c: d37f7c00    	ubfiz	x0, x0, #1, #32
100006e90: f901454e    	str	x14, [x10, #0x288]
100006e94: 9b002c4b    	madd	x11, x2, x0, x11
100006e98: 92407de0    	and	x0, x15, #0xffffffff
100006e9c: 8b0f0222    	add	x2, x17, x15
100006ea0: d37f7e31    	ubfiz	x17, x17, #1, #32
100006ea4: 9b000a31    	madd	x17, x17, x0, x2
100006ea8: ca1401ce    	eor	x14, x14, x20
100006eac: ca0d022d    	eor	x13, x17, x13
100006eb0: 93cd81ad    	ror	x13, x13, #0x20
100006eb4: 92407da0    	and	x0, x13, #0xffffffff
100006eb8: 8b0c01a2    	add	x2, x13, x12
100006ebc: f901014b    	str	x11, [x10, #0x200]
100006ec0: d37f7d8c    	ubfiz	x12, x12, #1, #32
100006ec4: 9b0c080c    	madd	x12, x0, x12, x2
100006ec8: ca0f018f    	eor	x15, x12, x15
100006ecc: 93cf61ef    	ror	x15, x15, #0x18
100006ed0: ca03016b    	eor	x11, x11, x3
100006ed4: 92407de0    	and	x0, x15, #0xffffffff
100006ed8: 8b1101e2    	add	x2, x15, x17
100006edc: d37f7e31    	ubfiz	x17, x17, #1, #32
100006ee0: 9b110811    	madd	x17, x0, x17, x2
100006ee4: 93d0fe10    	ror	x16, x16, #0x3f
100006ee8: ca0d022d    	eor	x13, x17, x13
100006eec: 93cd41ad    	ror	x13, x13, #0x10
100006ef0: a9084541    	stp	x1, x17, [x10, #0x80]
100006ef4: 93cefdce    	ror	x14, x14, #0x3f
100006ef8: f901c14d    	str	x13, [x10, #0x380]
100006efc: 92407db1    	and	x17, x13, #0xffffffff
100006f00: 8b0c01ad    	add	x13, x13, x12
100006f04: 93cbfd6b    	ror	x11, x11, #0x3f
100006f08: d37f7d8c    	ubfiz	x12, x12, #1, #32
100006f0c: 9b0c362c    	madd	x12, x17, x12, x13
100006f10: f901054c    	str	x12, [x10, #0x208]
100006f14: ca0f018c    	eor	x12, x12, x15
100006f18: a9182d4e    	stp	x14, x11, [x10, #0x180]
100006f1c: 93ccfd8b    	ror	x11, x12, #0x3f
100006f20: a910414b    	stp	x11, x16, [x10, #0x100]
100006f24: 91004108    	add	x8, x8, #0x10
100006f28: f102011f    	cmp	x8, #0x80
100006f2c: 54ffe4a1    	b.ne	0x100006bc0 <_fill_block+0x3b8>
100006f30: 910003e1    	mov	x1, sp
100006f34: aa1303e0    	mov	x0, x19
100006f38: 97fff16e    	bl	0x1000034f0 <_copy_block>
100006f3c: 911003e1    	add	x1, sp, #0x400
100006f40: aa1303e0    	mov	x0, x19
100006f44: 97fff16d    	bl	0x1000034f8 <_xor_block>
100006f48: 912003ff    	add	sp, sp, #0x800
100006f4c: a9447bfd    	ldp	x29, x30, [sp, #0x40]
100006f50: a9434ff4    	ldp	x20, x19, [sp, #0x30]
100006f54: a94257f6    	ldp	x22, x21, [sp, #0x20]
100006f58: a9415ff8    	ldp	x24, x23, [sp, #0x10]
100006f5c: a8c567fa    	ldp	x26, x25, [sp], #0x50
100006f60: d65f03c0    	ret

Disassembly of section __TEXT,__stubs:

0000000100006f64 <__stubs>:
100006f64: d0000010    	adrp	x16, 0x100008000 <_strncmp+0x100008000>
100006f68: f9400210    	ldr	x16, [x16]
100006f6c: d61f0200    	br	x16
100006f70: d0000010    	adrp	x16, 0x100008000 <_strncmp+0x100008000>
100006f74: f9400610    	ldr	x16, [x16, #0x8]
100006f78: d61f0200    	br	x16
100006f7c: d0000010    	adrp	x16, 0x100008000 <_strncmp+0x100008000>
100006f80: f9400a10    	ldr	x16, [x16, #0x10]
100006f84: d61f0200    	br	x16
100006f88: d0000010    	adrp	x16, 0x100008000 <_strncmp+0x100008000>
100006f8c: f9400e10    	ldr	x16, [x16, #0x18]
100006f90: d61f0200    	br	x16
100006f94: d0000010    	adrp	x16, 0x100008000 <_strncmp+0x100008000>
100006f98: f9401a10    	ldr	x16, [x16, #0x30]
100006f9c: d61f0200    	br	x16
100006fa0: d0000010    	adrp	x16, 0x100008000 <_strncmp+0x100008000>
100006fa4: f9401e10    	ldr	x16, [x16, #0x38]
100006fa8: d61f0200    	br	x16
100006fac: d0000010    	adrp	x16, 0x100008000 <_strncmp+0x100008000>
100006fb0: f9402210    	ldr	x16, [x16, #0x40]
100006fb4: d61f0200    	br	x16
100006fb8: d0000010    	adrp	x16, 0x100008000 <_strncmp+0x100008000>
100006fbc: f9402610    	ldr	x16, [x16, #0x48]
100006fc0: d61f0200    	br	x16
100006fc4: d0000010    	adrp	x16, 0x100008000 <_strncmp+0x100008000>
100006fc8: f9402a10    	ldr	x16, [x16, #0x50]
100006fcc: d61f0200    	br	x16
100006fd0: d0000010    	adrp	x16, 0x100008000 <_strncmp+0x100008000>
100006fd4: f9402e10    	ldr	x16, [x16, #0x58]
100006fd8: d61f0200    	br	x16
100006fdc: d0000010    	adrp	x16, 0x100008000 <_strncmp+0x100008000>
100006fe0: f9403210    	ldr	x16, [x16, #0x60]
100006fe4: d61f0200    	br	x16
100006fe8: d0000010    	adrp	x16, 0x100008000 <_strncmp+0x100008000>
100006fec: f9403610    	ldr	x16, [x16, #0x68]
100006ff0: d61f0200    	br	x16
100006ff4: d0000010    	adrp	x16, 0x100008000 <_strncmp+0x100008000>
100006ff8: f9403a10    	ldr	x16, [x16, #0x70]
100006ffc: d61f0200    	br	x16
100007000: b0000010    	adrp	x16, 0x100008000 <_strncmp+0x100008000>
100007004: f9403e10    	ldr	x16, [x16, #0x78]
100007008: d61f0200    	br	x16
10000700c: b0000010    	adrp	x16, 0x100008000 <_strncmp+0x100008000>
100007010: f9404210    	ldr	x16, [x16, #0x80]
100007014: d61f0200    	br	x16
100007018: b0000010    	adrp	x16, 0x100008000 <_strncmp+0x100008000>
10000701c: f9404610    	ldr	x16, [x16, #0x88]
100007020: d61f0200    	br	x16
100007024: b0000010    	adrp	x16, 0x100008000 <_strncmp+0x100008000>
100007028: f9404a10    	ldr	x16, [x16, #0x90]
10000702c: d61f0200    	br	x16
100007030: b0000010    	adrp	x16, 0x100008000 <_strncmp+0x100008000>
100007034: f9404e10    	ldr	x16, [x16, #0x98]
100007038: d61f0200    	br	x16
10000703c: b0000010    	adrp	x16, 0x100008000 <_strncmp+0x100008000>
100007040: f9405210    	ldr	x16, [x16, #0xa0]
100007044: d61f0200    	br	x16
100007048: b0000010    	adrp	x16, 0x100008000 <_strncmp+0x100008000>
10000704c: f9405610    	ldr	x16, [x16, #0xa8]
100007050: d61f0200    	br	x16
100007054: b0000010    	adrp	x16, 0x100008000 <_strncmp+0x100008000>
100007058: f9405a10    	ldr	x16, [x16, #0xb0]
10000705c: d61f0200    	br	x16
100007060: b0000010    	adrp	x16, 0x100008000 <_strncmp+0x100008000>
100007064: f9405e10    	ldr	x16, [x16, #0xb8]
100007068: d61f0200    	br	x16
10000706c: b0000010    	adrp	x16, 0x100008000 <_strncmp+0x100008000>
100007070: f9406210    	ldr	x16, [x16, #0xc0]
100007074: d61f0200    	br	x16
100007078: b0000010    	adrp	x16, 0x100008000 <_strncmp+0x100008000>
10000707c: f9406610    	ldr	x16, [x16, #0xc8]
100007080: d61f0200    	br	x16
100007084: b0000010    	adrp	x16, 0x100008000 <_strncmp+0x100008000>
100007088: f9406a10    	ldr	x16, [x16, #0xd0]
10000708c: d61f0200    	br	x16
100007090: b0000010    	adrp	x16, 0x100008000 <_strncmp+0x100008000>
100007094: f9406e10    	ldr	x16, [x16, #0xd8]
100007098: d61f0200    	br	x16
10000709c: b0000010    	adrp	x16, 0x100008000 <_strncmp+0x100008000>
1000070a0: f9407210    	ldr	x16, [x16, #0xe0]
1000070a4: d61f0200    	br	x16
1000070a8: b0000010    	adrp	x16, 0x100008000 <_strncmp+0x100008000>
1000070ac: f9407610    	ldr	x16, [x16, #0xe8]
1000070b0: d61f0200    	br	x16
1000070b4: b0000010    	adrp	x16, 0x100008000 <_strncmp+0x100008000>
1000070b8: f9407a10    	ldr	x16, [x16, #0xf0]
1000070bc: d61f0200    	br	x16
